(lp0
(lp1
I13195
aI22786
aI37696
aI55929
aI75291
aI92845
aI104959
aI106989
aI107180
aI108796
aI120766
aI143888
aI182205
aI257433
aI389589
aI546395
aI681794
aI788453
aI715792
aI498783
aI362266
aI308093
aI272083
aI219464
aI164678
aI120878
aI88662
aI48860
aI19765
aI6591
aI2104
aI910
aI325
aI173
aI116
aI36
aI4
aI0
aI0
aI0
aa(lp2
I11930
aI21986
aI37378
aI56170
aI75245
aI92140
aI102663
aI106437
aI109192
aI115511
aI137747
aI171782
aI216039
aI300173
aI421449
aI555692
aI700040
aI801662
aI678878
aI461656
aI350133
aI294328
aI249307
aI198736
aI147705
aI102380
aI62972
aI37899
aI17313
aI5928
aI2106
aI909
aI318
aI166
aI99
aI34
aI6
aI0
aI0
aI0
aa(lp3
I11956
aI22141
aI37584
aI56794
aI76309
aI93238
aI104576
aI109813
aI115835
aI129104
aI157913
aI204223
aI274654
aI411409
aI539099
aI649597
aI769519
aI740042
aI557942
aI419645
aI349574
aI295310
aI221462
aI144469
aI79708
aI40506
aI17503
aI7989
aI3132
aI1320
aI739
aI329
aI159
aI107
aI63
aI11
aI0
aI0
aI0
aI0
aa(lp4
I12152
aI22547
aI37890
aI57113
aI77012
aI94124
aI106734
aI112575
aI121163
aI138701
aI174560
aI221655
aI304938
aI438332
aI549739
aI681832
aI793486
aI713210
aI520021
aI391857
aI329262
aI276580
aI204496
aI130686
aI67540
aI35499
aI16675
aI7785
aI2980
aI1315
aI733
aI317
aI146
aI106
aI62
aI7
aI0
aI0
aI0
aI0
aa(lp5
I12029
aI22433
aI38125
aI58216
aI77902
aI95708
aI109373
aI117033
aI128504
aI153840
aI197879
aI262406
aI382235
aI521328
aI645237
aI792302
aI773555
aI595180
aI450822
aI377365
aI321856
aI231520
aI137646
aI70211
aI35724
aI17461
aI9897
aI4576
aI1495
aI781
aI311
aI173
aI109
aI60
aI11
aI0
aI0
aI0
aI0
aI0
aa(lp6
I12204
aI22694
aI38689
aI58787
aI78994
aI96965
aI111492
aI120325
aI134443
aI164880
aI216179
aI303489
aI425200
aI548969
aI690743
aI822602
aI730464
aI529498
aI412095
aI352511
aI300894
aI214663
aI124138
aI64724
aI33644
aI16951
aI9655
aI4463
aI1477
aI770
aI319
aI167
aI107
aI56
aI10
aI0
aI0
aI0
aI0
aI0
aa(lp7
I12483
aI23125
aI39283
aI59498
aI79795
aI99047
aI115113
aI129240
aI153942
aI199134
aI286588
aI431260
aI574897
aI725874
aI833584
aI708696
aI516248
aI428044
aI375281
aI318607
aI229122
aI140065
aI76182
aI41931
aI22325
aI12190
aI6850
aI2869
aI1137
aI406
aI183
aI124
aI57
aI18
aI1
aI0
aI0
aI0
aI0
aI0
aa(lp8
I13207
aI23454
aI39537
aI59487
aI80853
aI101756
aI122469
aI146616
aI186172
aI258099
aI368752
aI477039
aI618867
aI782806
aI785663
aI602549
aI450647
aI391335
aI347796
aI300512
aI207587
aI127562
aI71789
aI39915
aI21649
aI11904
aI6597
aI2869
aI1122
aI402
aI170
aI124
aI53
aI19
aI1
aI0
aI0
aI0
aI0
aI0
aa(lp9
I11419
aI21802
aI38831
aI61643
aI87102
aI114045
aI146860
aI196354
aI279643
aI413764
aI548676
aI689781
aI793006
aI714879
aI541529
aI432692
aI365675
aI322412
aI277853
aI215283
aI150875
aI91975
aI54606
aI31390
aI18803
aI10139
aI5110
aI2539
aI924
aI321
aI153
aI61
aI22
aI1
aI0
aI0
aI0
aI0
aI0
aI0
aa(lp10
I11796
aI22560
aI40843
aI65611
aI96176
aI131871
aI177289
aI246624
aI349849
aI469895
aI582594
aI712413
aI742919
aI626728
aI491644
aI404360
aI345639
aI305474
aI263180
aI201416
aI142832
aI87745
aI52413
aI30252
aI18560
aI9998
aI4937
aI2537
aI892
aI311
aI153
aI63
aI22
aI1
aI0
aI0
aI0
aI0
aI0
aI0
aa(lp11
I12882
aI25048
aI44851
aI73308
aI111046
aI161353
aI230365
aI334038
aI473270
aI621451
aI729342
aI734642
aI604502
aI459419
aI379516
aI339962
aI317328
aI283536
aI232922
aI176393
aI119822
aI73343
aI43122
aI25933
aI15794
aI7816
aI3988
aI1882
aI702
aI228
aI109
aI40
aI9
aI0
aI0
aI0
aI0
aI0
aI0
aI0
aa(lp12
I14213
aI27373
aI48732
aI81431
aI126416
aI187778
aI270882
aI382299
aI523519
aI664370
aI718654
aI668457
aI545565
aI427416
aI361814
aI329279
aI306570
aI274475
aI223439
aI169489
aI115628
aI71179
aI41722
aI25687
aI15632
aI7649
aI3965
aI1813
aI698
aI231
aI110
aI39
aI10
aI0
aI0
aI0
aI0
aI0
aI0
aI0
aa(lp13
I15893
aI30364
aI55691
aI98775
aI168066
aI270260
aI407435
aI572770
aI697317
aI703844
aI619491
aI497566
aI392024
aI341904
aI320594
aI306117
aI291033
aI251805
aI200297
aI151609
aI97799
aI59982
aI36283
aI22866
aI13021
aI6195
aI3242
aI1439
aI590
aI187
aI74
aI29
aI1
aI0
aI0
aI0
aI0
aI0
aI0
aI0
aa(lp14
I17425
aI34983
aI68501
aI127198
aI218753
aI342299
aI483892
aI605438
aI656969
aI639591
aI556833
aI450785
aI378710
aI337681
aI318513
aI301547
aI282936
aI241224
aI191064
aI144643
aI93785
aI57903
aI35429
aI22358
aI12808
aI6224
aI3169
aI1400
aI616
aI180
aI77
aI30
aI1
aI0
aI0
aI0
aI0
aI0
aI0
aI0
aa(lp15
I21202
aI44003
aI90324
aI171697
aI293550
aI437071
aI567633
aI640814
aI642852
aI569604
aI466976
aI388148
aI352306
aI331226
aI317105
aI300174
aI267928
aI221857
aI172411
aI127245
aI82205
aI50869
aI31784
aI20151
aI11003
aI5516
aI2624
aI1339
aI482
aI161
aI61
aI19
aI0
aI0
aI0
aI0
aI0
aI0
aI0
aI0
aa(lp16
I23769
aI50807
aI102611
aI190147
aI312821
aI449726
aI565570
aI627599
aI626408
aI556887
aI461864
aI391857
aI358056
aI333821
aI317269
aI295694
aI258860
aI214513
aI165512
aI122602
aI79699
aI49326
aI31214
aI19961
aI10973
aI5433
aI2603
aI1334
aI468
aI166
aI56
aI19
aI0
aI0
aI0
aI0
aI0
aI0
aI0
aI0
aa(lp17
I22616
aI46850
aI96882
aI184756
aI310569
aI455774
aI578375
aI629474
aI620973
aI549074
aI458935
aI400055
aI373864
aI340500
aI322042
aI292730
aI251684
aI203074
aI152947
aI111881
aI75774
aI51100
aI36538
aI24402
aI14782
aI9303
aI5967
aI3558
aI2103
aI962
aI433
aI160
aI49
aI6
aI0
aI0
aI0
aI0
aI0
aI0
aa(lp18
I26338
aI53373
aI104612
aI192312
aI316437
aI457800
aI572419
aI621497
aI613337
aI546616
aI462093
aI405936
aI376274
aI341141
aI321384
aI286255
aI245515
aI198684
aI148315
aI109567
aI74186
aI50963
aI36354
aI24380
aI14709
aI9333
aI5965
aI3563
aI2108
aI960
aI435
aI160
aI48
aI6
aI0
aI0
aI0
aI0
aI0
aI0
aa(lp19
I31665
aI62702
aI120222
aI215734
aI342547
aI467779
aI563640
aI613216
aI601423
aI528800
aI452817
aI410023
aI382836
aI340008
aI315538
aI278891
aI237067
aI188820
aI138969
aI101804
aI73652
aI50650
aI35458
aI24175
aI14774
aI9235
aI5952
aI3404
aI2084
aI926
aI422
aI154
aI46
aI6
aI0
aI0
aI0
aI0
aI0
aI0
aa(lp20
I36070
aI67307
aI125418
aI221070
aI345918
aI467144
aI557747
aI607033
aI593418
aI526202
aI455198
aI411949
aI383623
aI340088
aI311717
aI276439
aI234716
aI185511
aI137126
aI100954
aI73575
aI50863
aI35442
aI24192
aI14833
aI9255
aI5961
aI3415
aI2080
aI928
aI421
aI154
aI47
aI5
aI0
aI0
aI0
aI0
aI0
aI0
aa(lp21
I46488
aI85306
aI148106
aI237039
aI345016
aI464122
aI557552
aI601510
aI579675
aI509588
aI446996
aI412304
aI379780
aI338575
aI306126
aI272946
aI227408
aI178077
aI130502
aI97523
aI72880
aI52585
aI35983
aI25239
aI15247
aI9386
aI5967
aI3554
aI2070
aI946
aI417
aI155
aI43
aI6
aI0
aI0
aI0
aI0
aI0
aI0
aa(lp22
I47075
aI84791
aI150161
aI239973
aI347905
aI461985
aI553124
aI595075
aI573233
aI507628
aI446124
aI413282
aI377842
aI338020
aI303104
aI271728
aI225126
aI176650
aI130027
aI97448
aI73052
aI52846
aI36277
aI25335
aI15277
aI9448
aI5975
aI3561
aI2069
aI947
aI418
aI155
aI43
aI6
aI0
aI0
aI0
aI0
aI0
aI0
aa(lp23
I58111
aI93494
aI152810
aI243086
aI352856
aI464806
aI553787
aI591042
aI562684
aI494223
aI442045
aI411386
aI374010
aI335450
aI301376
aI267090
aI217962
aI174450
aI128350
aI95616
aI73891
aI54305
aI38381
aI26603
aI16530
aI10003
aI6384
aI3636
aI2167
aI965
aI431
aI156
aI44
aI6
aI0
aI0
aI0
aI0
aI0
aI0
aa(lp24
I59596
aI96614
aI156583
aI246210
aI353863
aI462935
aI550606
aI584223
aI559868
aI492818
aI441840
aI413576
aI373096
aI334226
aI300808
aI265375
aI217767
aI174304
aI129533
aI95991
aI74533
aI54783
aI38788
aI26789
aI16570
aI10065
aI6401
aI3639
aI2172
aI963
aI432
aI157
aI43
aI6
aI0
aI0
aI0
aI0
aI0
aI0
aa(lp25
I65866
aI105022
aI166637
aI255446
aI356333
aI457112
aI538356
aI571169
aI547427
aI497598
aI458140
aI424152
aI376970
aI336464
aI292836
aI250953
aI204951
aI166973
aI124968
aI92533
aI71324
aI54258
aI39559
aI27682
aI19507
aI12130
aI7809
aI5008
aI3368
aI2152
aI973
aI486
aI118
aI34
aI4
aI0
aI0
aI0
aI0
aI0
aa(lp26
I75972
aI119146
aI182312
aI267415
aI359876
aI446163
aI522223
aI553151
aI535141
aI492227
aI458359
aI421742
aI374950
aI333031
aI291130
aI247302
aI202716
aI168769
aI129025
aI95539
aI73475
aI56049
aI40491
aI28314
aI19717
aI12162
aI7802
aI5046
aI3389
aI2150
aI973
aI484
aI124
aI30
aI4
aI0
aI0
aI0
aI0
aI0
aa(lp27
I79408
aI120420
aI184485
aI273339
aI366803
aI453965
aI520916
aI544303
aI520714
aI479734
aI450184
aI424927
aI373490
aI329129
aI290207
aI243868
aI200235
aI165039
aI128552
aI95862
aI75488
aI58159
aI44540
aI31400
aI21402
aI14308
aI8532
aI5326
aI3455
aI2195
aI1006
aI494
aI124
aI33
aI4
aI0
aI0
aI0
aI0
aI0
aa(lp28
I72372
aI115132
aI182824
aI272252
aI366387
aI451807
aI517290
aI542469
aI519447
aI479376
aI446275
aI424168
aI374456
aI329659
aI288665
aI244243
aI200833
aI165721
aI130477
aI98052
aI76780
aI59076
aI45214
aI31776
aI21545
aI14411
aI8597
aI5322
aI3465
aI2197
aI1004
aI494
aI123
aI34
aI4
aI0
aI0
aI0
aI0
aI0
aa(lp29
I59133
aI107285
aI180983
aI273269
aI370646
aI455853
aI518438
aI536723
aI511165
aI473365
aI445335
aI420856
aI374490
aI329498
aI282337
aI244100
aI197536
aI163651
aI130465
aI99288
aI79189
aI60104
aI47849
aI34591
aI22685
aI15945
aI9540
aI5762
aI3533
aI2243
aI998
aI486
aI120
aI33
aI4
aI0
aI0
aI0
aI0
aI0
aa(lp30
I59780
aI108028
aI181480
aI273936
aI368362
aI455183
aI517511
aI532549
aI510178
aI473098
aI444895
aI419678
aI374572
aI328937
aI281870
aI242255
aI198374
aI163959
aI131907
aI101516
aI80940
aI61278
aI48588
aI35076
aI22978
aI16064
aI9546
aI5780
aI3560
aI2253
aI994
aI488
aI122
aI30
aI4
aI0
aI0
aI0
aI0
aI0
aa(lp31
I60778
aI109877
aI183644
aI277536
aI375788
aI460186
aI518611
aI524669
aI497928
aI468813
aI445974
aI416990
aI372724
aI328145
aI280606
aI237972
aI197209
aI163216
aI130035
aI102451
aI81883
aI62889
aI50200
aI37958
aI25404
aI16932
aI10808
aI6314
aI3757
aI2330
aI1028
aI492
aI126
aI36
aI4
aI0
aI0
aI0
aI0
aI0
aa(lp32
I60983
aI110521
aI184815
aI277963
aI375695
aI458730
aI517117
aI523575
aI496672
aI467794
aI445083
aI416731
aI372331
aI326555
aI279440
aI237455
aI196963
aI164529
aI130692
aI104496
aI83045
aI64167
aI50808
aI38420
aI25834
aI17041
aI10870
aI6361
aI3752
aI2338
aI1036
aI491
aI127
aI36
aI4
aI0
aI0
aI0
aI0
aI0
aa(lp33
I63269
aI113261
aI187267
aI282496
aI377586
aI457558
aI501616
aI504369
aI478226
aI457839
aI452952
aI433155
aI395979
aI347761
aI287272
aI234497
aI190483
aI156592
aI126123
aI100320
aI81185
aI63105
aI49239
aI36354
aI26162
aI16490
aI11071
aI6691
aI3584
aI2060
aI1104
aI552
aI177
aI17
aI1
aI0
aI0
aI0
aI0
aI0
aa(lp34
I62583
aI113006
aI188291
aI282546
aI378288
aI456711
aI500375
aI504108
aI479944
aI458503
aI453075
aI431688
aI394613
aI345421
aI284992
aI233235
aI189152
aI156771
aI127836
aI101654
aI82925
aI64169
aI50254
aI36871
aI26551
aI16792
aI11111
aI6728
aI3602
aI2079
aI1107
aI550
aI177
aI17
aI1
aI0
aI0
aI0
aI0
aI0
aa(lp35
I62164
aI111943
aI188498
aI283575
aI381387
aI461553
aI500785
aI502298
aI480552
aI461038
aI452695
aI435176
aI391323
aI342388
aI285513
aI228064
aI183983
aI150888
aI126902
aI101442
aI83645
aI65827
aI51417
aI38389
aI28438
aI18220
aI12066
aI7539
aI3910
aI2197
aI1155
aI568
aI191
aI15
aI1
aI0
aI0
aI0
aI0
aI0
aa(lp36
I62164
aI111876
aI187816
aI282904
aI381741
aI461655
aI501649
aI502326
aI482284
aI462978
aI450280
aI434232
aI389784
aI340656
aI282221
aI226906
aI183481
aI150195
aI128444
aI103144
aI85177
aI67164
aI51897
aI39149
aI28971
aI18503
aI12207
aI7557
aI3931
aI2215
aI1157
aI570
aI188
aI15
aI2
aI0
aI0
aI0
aI0
aI0
aa(lp37
I62532
aI111650
aI187350
aI284651
aI382259
aI465043
aI506534
aI505731
aI485870
aI467981
aI455150
aI433020
aI388295
aI333375
aI278085
aI221856
aI175106
aI144228
aI124023
aI102786
aI86177
aI70020
aI52429
aI39995
aI30536
aI19803
aI13277
aI8241
aI4564
aI2258
aI1263
aI586
aI181
aI15
aI1
aI0
aI0
aI0
aI0
aI0
aa(lp38
I60638
aI109595
aI184221
aI281424
aI382741
aI463194
aI507085
aI510882
aI487361
aI470307
aI456033
aI435254
aI388033
aI330454
aI276448
aI218722
aI174390
aI143826
aI124252
aI105016
aI87579
aI71945
aI53428
aI40773
aI31326
aI20172
aI13502
aI8459
aI4827
aI2303
aI1323
aI612
aI171
aI19
aI1
aI0
aI0
aI0
aI0
aI0
aa(lp39
I57169
aI103821
aI177427
aI274321
aI377285
aI460515
aI509175
aI521701
aI500536
aI477068
aI461585
aI442599
aI387594
aI330597
aI271216
aI214921
aI171543
aI138276
aI120015
aI105116
aI87158
aI74310
aI55050
aI42118
aI33284
aI21365
aI14722
aI9283
aI5817
aI2750
aI1398
aI701
aI184
aI15
aI1
aI0
aI0
aI0
aI0
aI0
aa(lp40
I50348
aI91942
aI160930
aI254624
aI361737
aI454300
aI508381
aI529364
aI512178
aI486472
aI464003
aI444243
aI394527
aI334736
aI272627
aI220707
aI175604
aI141219
aI121578
aI108786
aI91442
aI77947
aI59262
aI44693
aI35240
aI23175
aI15605
aI10013
aI6363
aI3128
aI1498
aI790
aI189
aI19
aI1
aI0
aI0
aI0
aI0
aI0
aa(lp41
I46538
aI80800
aI137813
aI225097
aI333383
aI437585
aI507077
aI534410
aI529871
aI503308
aI468162
aI441638
aI400174
aI347848
aI290559
aI234693
aI185357
aI144476
aI116958
aI104509
aI92546
aI77624
aI62480
aI46568
aI33924
aI25481
aI15372
aI10104
aI5682
aI3103
aI1246
aI446
aI70
aI6
aI0
aI0
aI0
aI0
aI0
aI0
aa(lp42
I40126
aI67598
aI116495
aI193646
aI297392
aI409878
aI495617
aI538949
aI544112
aI522245
aI482830
aI449980
aI407079
aI358216
aI297447
aI244136
aI193768
aI152427
aI122974
aI105361
aI98196
aI82304
aI69299
aI51664
aI38406
aI28484
aI18430
aI11612
aI6855
aI3799
aI1641
aI627
aI130
aI9
aI0
aI0
aI0
aI0
aI0
aI0
aa(lp43
I35492
aI58834
aI98971
aI167192
aI261981
aI376851
aI486138
aI547861
aI561191
aI542843
aI508135
aI469293
aI413574
aI357083
aI306490
aI246559
aI194504
aI154279
aI123762
aI104698
aI97187
aI86052
aI72476
aI57623
aI42022
aI32227
aI21800
aI13416
aI8739
aI4789
aI2408
aI1016
aI195
aI17
aI2
aI0
aI0
aI0
aI0
aI0
aa(lp44
I32176
aI52483
aI86795
aI145062
aI232112
aI344443
aI461152
aI542335
aI566770
aI557331
aI525531
aI481066
aI428231
aI362586
aI312480
aI255326
aI202197
aI161845
aI129080
aI108556
aI97186
aI90678
aI76621
aI63163
aI47312
aI35123
aI25300
aI15409
aI10256
aI5716
aI3155
aI1347
aI353
aI46
aI4
aI0
aI0
aI0
aI0
aI0
aa(lp45
I31129
aI49547
aI80880
aI132895
aI213641
aI322402
aI444276
aI544544
aI579887
aI573494
aI541058
aI499477
aI438058
aI366907
aI311047
aI252471
aI199840
aI159599
aI125011
aI107951
aI95958
aI89686
aI76925
aI66717
aI49701
aI36569
aI28195
aI17665
aI11433
aI7048
aI3653
aI1724
aI510
aI51
aI4
aI0
aI0
aI0
aI0
aI0
aa(lp46
I29977
aI46827
aI74805
aI121061
aI194426
aI294809
aI414336
aI526287
aI581891
aI583793
aI553739
aI510485
aI450689
aI380467
aI317155
aI259042
aI207188
aI165907
aI128191
aI108819
aI96093
aI90559
aI79817
aI69772
aI54463
aI40094
aI30865
aI20362
aI13023
aI8375
aI4396
aI2339
aI820
aI118
aI8
aI1
aI0
aI0
aI0
aI0
aa(lp47
I30417
aI46728
aI72631
aI117681
aI187762
aI287097
aI405478
aI520501
aI594294
aI604072
aI574259
aI520668
aI456028
aI379603
aI310395
aI252209
aI201357
aI156909
aI126056
aI104388
aI94831
aI88392
aI79283
aI68441
aI55273
aI41066
aI30551
aI22749
aI13675
aI9010
aI4915
aI2328
aI815
aI130
aI8
aI0
aI0
aI0
aI0
aI0
aa(lp48
I30582
aI45595
aI71143
aI112395
aI176866
aI269396
aI381662
aI498764
aI585415
aI606893
aI582159
aI532244
aI467960
aI393528
aI318002
aI258771
aI204453
aI161717
aI129340
aI105436
aI93549
aI87965
aI79771
aI70091
aI58124
aI44233
aI31945
aI25299
aI15323
aI10598
aI5878
aI2943
aI1225
aI242
aI27
aI2
aI0
aI0
aI0
aI0
aa(lp49
I35984
aI52896
aI80458
aI124404
aI190932
aI283020
aI394138
aI512032
aI596114
aI620292
aI591058
aI528264
aI450291
aI370150
aI306732
aI247797
aI197162
aI155941
aI123553
aI98883
aI86081
aI79468
aI72860
aI65997
aI52812
aI41575
aI29244
aI22695
aI15078
aI9544
aI5135
aI2598
aI872
aI157
aI23
aI0
aI0
aI0
aI0
aI0
aa(lp50
I37354
aI54104
aI81229
aI123655
aI186056
aI272539
aI378079
aI490008
aI582192
aI618838
aI593390
aI536842
aI463472
aI380316
aI315289
aI253094
aI203044
aI156091
aI125531
aI99658
aI84484
aI76390
aI72442
aI66446
aI53457
aI43039
aI31177
aI23588
aI17227
aI10693
aI6228
aI3347
aI1362
aI290
aI47
aI0
aI0
aI0
aI0
aI0
aa(lp51
I42407
aI60783
aI90695
aI136498
aI203539
aI293821
aI401042
aI509983
aI596401
aI637207
aI606172
aI533561
aI452685
aI364483
aI290849
aI235805
aI180456
aI142713
aI114310
aI94137
aI78346
aI72361
aI67218
aI61450
aI49422
aI38895
aI27653
aI20211
aI15020
aI9596
aI4900
aI2618
aI880
aI174
aI22
aI0
aI0
aI0
aI0
aI0
aa(lp52
I43651
aI61107
aI89555
aI134254
aI197671
aI285116
aI388202
aI494111
aI580327
aI628760
aI613961
aI544782
aI464417
aI379558
aI299105
aI240675
aI185782
aI146872
aI115070
aI91814
aI77982
aI70497
aI65038
aI60491
aI48794
aI39170
aI29140
aI21089
aI15945
aI11130
aI5949
aI3363
aI1317
aI265
aI75
aI3
aI0
aI0
aI0
aI0
aa(lp53
I42526
aI59839
aI87386
aI129691
aI192288
aI276711
aI381068
aI490763
aI588319
aI645712
aI646014
aI577045
aI476526
aI377196
aI292861
aI230054
aI180641
aI139379
aI106892
aI87521
aI75881
aI66215
aI62029
aI57718
aI47618
aI36413
aI27252
aI20439
aI14453
aI10548
aI5736
aI3011
aI974
aI216
aI47
aI0
aI0
aI0
aI0
aI0
aa(lp54
I41161
aI56983
aI82303
aI121251
aI178603
aI257901
aI356416
aI466059
aI567896
aI642626
aI654132
aI601284
aI501642
aI398483
aI312074
aI238010
aI185660
aI143104
aI110122
aI87367
aI75860
aI66167
aI60149
aI57491
aI48517
aI38183
aI28845
aI21303
aI15873
aI11733
aI7225
aI3757
aI1542
aI382
aI70
aI6
aI0
aI0
aI0
aI0
aa(lp55
I42282
aI58847
aI84040
aI122170
aI177517
aI253573
aI351189
aI460455
aI565176
aI642373
aI666687
aI622119
aI522937
aI411798
aI312365
aI235284
aI175533
aI133803
aI102823
aI84164
aI72475
aI63171
aI56377
aI53762
aI45917
aI37529
aI26886
aI19993
aI14420
aI10436
aI6539
aI3278
aI1035
aI285
aI34
aI0
aI0
aI0
aI0
aI0
aa(lp56
I42307
aI57959
aI82175
aI118302
aI169392
aI239413
aI330194
aI437226
aI538852
aI623986
aI665793
aI640215
aI549253
aI438936
aI332552
aI247916
aI183142
aI135591
aI105375
aI84277
aI71497
aI62666
aI55620
aI52070
aI45548
aI37706
aI28310
aI20705
aI16051
aI11264
aI7695
aI4212
aI1674
aI438
aI64
aI0
aI0
aI0
aI0
aI0
aa(lp57
I48160
aI65932
aI92473
aI129338
aI180036
aI249410
aI336195
aI435006
aI531669
aI612177
aI654603
aI643054
aI562809
aI440976
aI330163
aI239661
aI174099
aI128047
aI100232
aI80988
aI68023
aI58477
aI51399
aI47031
aI42146
aI33006
aI25667
aI18838
aI13311
aI9078
aI6101
aI2922
aI949
aI235
aI6
aI0
aI0
aI0
aI0
aI0
aa(lp58
I49073
aI67038
aI92453
aI128048
aI176550
aI240347
aI321306
aI414652
aI510341
aI590305
aI637928
aI643442
aI582912
aI469496
aI353577
aI260166
aI184769
aI131443
aI100115
aI81006
aI66055
aI57936
aI50775
aI43832
aI39881
aI33287
aI25653
aI19783
aI14651
aI10079
aI6952
aI4007
aI1507
aI389
aI23
aI0
aI0
aI0
aI0
aI0
aa(lp59
I54623
aI74143
aI101563
aI138250
aI186145
aI248665
aI325762
aI412864
aI501371
aI577855
aI629796
aI641429
aI587415
aI482210
aI359411
aI254075
aI179598
aI124861
aI92824
aI76577
aI63867
aI55282
aI46506
aI40398
aI36639
aI28788
aI22359
aI16464
aI11901
aI7700
aI4521
aI2233
aI729
aI73
aI0
aI0
aI0
aI0
aI0
aI0
aa(lp60
I56206
aI75656
aI102603
aI137235
aI184041
aI243103
aI314711
aI396939
aI479462
aI555653
aI609141
aI629083
aI595975
aI508187
aI387345
aI278193
aI194458
aI131500
aI93345
aI76408
aI63301
aI52703
aI44388
aI37798
aI33648
aI27594
aI22406
aI17517
aI13092
aI8672
aI5484
aI2914
aI1144
aI167
aI5
aI0
aI0
aI0
aI0
aI0
aa(lp61
I64013
aI84043
aI111466
aI148693
aI193847
aI253104
aI320988
aI397497
aI475693
aI546715
aI598297
aI617548
aI591276
aI510082
aI393562
aI277523
aI192802
aI125474
aI88080
aI71977
aI57557
aI48057
aI40383
aI33429
aI28641
aI24519
aI19003
aI13499
aI9246
aI5531
aI2635
aI1346
aI319
aI11
aI0
aI0
aI0
aI0
aI0
aI0
aa(lp62
I66035
aI85435
aI111834
aI147796
aI192022
aI247477
aI314270
aI385510
aI459563
aI525609
aI576268
aI600187
aI588946
aI526332
aI423926
aI305458
aI210075
aI137034
aI89586
aI70366
aI55522
aI45428
aI37068
aI30836
aI25464
aI22884
aI19310
aI14617
aI10257
aI6603
aI3191
aI1767
aI646
aI52
aI1
aI0
aI0
aI0
aI0
aI0
aa(lp63
I71940
aI92865
aI122214
aI158477
aI203570
aI257389
aI320744
aI388382
aI456379
aI519567
aI569726
aI590113
aI574966
aI519579
aI422588
aI307434
aI207693
aI135376
aI88004
aI64791
aI51063
aI39625
aI32879
aI27128
aI22570
aI19241
aI13558
aI9513
aI6283
aI3024
aI1577
aI725
aI50
aI8
aI0
aI0
aI0
aI0
aI0
aI0
aa(lp64
I70167
aI94647
aI122656
aI157629
aI201575
aI254648
aI314659
aI379298
aI441713
aI501516
aI548507
aI572150
aI569149
aI527705
aI444817
aI337729
aI231308
aI148520
aI92247
aI64279
aI48690
aI36634
aI28786
aI24591
aI20242
aI17878
aI14303
aI10202
aI7170
aI3767
aI2011
aI970
aI190
aI10
aI3
aI0
aI0
aI0
aI0
aI0
aa(lp65
I75544
aI106570
aI135765
aI171331
aI216883
aI267954
aI326787
aI387657
aI446519
aI498608
aI539966
aI557339
aI544609
aI504889
aI431489
aI329382
aI227526
aI149569
aI93734
aI61022
aI43041
aI30377
aI24222
aI20954
aI16650
aI12677
aI9235
aI6013
aI3115
aI1755
aI833
aI213
aI11
aI4
aI0
aI0
aI0
aI0
aI0
aI0
aa(lp66
I83647
aI103079
aI135291
aI171435
aI215766
aI265796
aI321768
aI380344
aI435052
aI485468
aI523685
aI539031
aI532513
aI504860
aI447401
aI357271
aI252488
aI164201
aI101338
aI61663
aI40368
aI27471
aI21185
aI18023
aI15081
aI12603
aI9534
aI6718
aI3790
aI2014
aI1132
aI397
aI43
aI5
aI0
aI0
aI0
aI0
aI0
aI0
aa(lp67
I97848
aI107167
aI145312
aI183294
aI229400
aI280002
aI334683
aI391787
aI445497
aI489957
aI517591
aI524411
aI511658
aI480037
aI426045
aI346656
aI252876
aI163288
aI102686
aI60935
aI36469
aI23101
aI17334
aI14117
aI10879
aI8467
aI5669
aI3010
aI1588
aI911
aI240
aI36
aI7
aI1
aI0
aI0
aI0
aI0
aI0
aI0
aa(lp68
I99557
aI104257
aI149234
aI182266
aI227715
aI278665
aI332036
aI386492
aI437379
aI477591
aI502313
aI508109
aI496490
aI475278
aI432643
aI365285
aI275887
aI180997
aI111929
aI65423
aI36414
aI20704
aI15345
aI12363
aI9885
aI8437
aI6200
aI3630
aI1895
aI1186
aI393
aI76
aI18
aI1
aI0
aI0
aI0
aI0
aI0
aI0
aa(lp69
I103240
aI127725
aI153845
aI193157
aI242298
aI293803
aI346822
aI399467
aI444799
aI480970
aI498046
aI495752
aI473951
aI439318
aI401897
aI346197
aI272028
aI182873
aI114092
aI68410
aI35419
aI17881
aI12344
aI9366
aI6936
aI4811
aI2931
aI1512
aI837
aI346
aI68
aI16
aI1
aI0
aI0
aI0
aI0
aI0
aI0
aI0
aa(lp70
I97436
aI132773
aI150076
aI196316
aI241381
aI293760
aI345618
aI396445
aI438628
aI470033
aI481877
aI478672
aI459444
aI432999
aI399098
aI353125
aI287773
aI202096
aI125181
aI75575
aI39121
aI17514
aI10813
aI8197
aI7025
aI5070
aI3236
aI1991
aI975
aI487
aI112
aI29
aI5
aI0
aI0
aI0
aI0
aI0
aI0
aI0
aa(lp71
I88111
aI158114
aI157219
aI214065
aI258585
aI310613
aI361337
aI408740
aI448396
aI471498
aI477610
aI462695
aI432339
aI393254
aI355726
aI322275
aI273900
aI199074
aI123930
aI77697
aI42278
aI17309
aI7822
aI5030
aI3925
aI2714
aI1530
aI838
aI378
aI121
aI19
aI3
aI0
aI0
aI0
aI0
aI0
aI0
aI0
aI0
aa(lp72
I82677
aI143290
aI184966
aI206679
aI257334
aI312875
aI361889
aI405542
aI439987
aI457615
aI460713
aI446235
aI418722
aI385346
aI350484
aI318692
aI278284
aI213321
aI137183
aI85186
aI48789
aI20229
aI7937
aI4842
aI3822
aI2787
aI1909
aI1014
aI480
aI185
aI27
aI7
aI0
aI0
aI0
aI0
aI0
aI0
aI0
aI0
aa.