(lp0
S'20130117'
p1
ag1
ag1
ag1
ag1
aS'20130126'
p2
ag2
ag2
ag2
ag2
aS'20130202'
p3
ag3
aS'20130208'
p4
aS'20130214'
p5
ag5
ag5
aS'20130217'
p6
ag6
ag6
aS'20130219'
p7
aS'20130222'
p8
ag8
aS'20130223'
p9
ag9
ag9
aS'20130226'
p10
aS'20130228'
p11
aS'20130301'
p12
ag12
ag12
ag12
ag12
ag12
ag12
aS'20130316'
p13
aS'20130317'
p14
ag14
ag14
ag14
ag14
ag14
ag14
ag14
ag14
ag14
aS'20130320'
p15
ag15
aS'20130321'
p16
ag16
aS'20130323'
p17
aS'20130327'
p18
ag18
ag18
ag18
aS'20130329'
p19
ag19
ag19
ag19
ag19
ag19
aS'20130424'
p20
ag20
aS'20130426'
p21
ag21
ag21
aS'20130501'
p22
ag22
ag22
ag22
ag22
aS'20130502'
p23
aS'20140429'
p24
ag24
aS'20140827'
p25
ag25
ag25
aS'20140924'
p26
ag26
aS'20140926'
p27
aS'20141009'
p28
aS'20141011'
p29
ag29
aS'20141014'
p30
aS'20141020'
p31
aS'20141024'
p32
ag32
aS'20141110'
p33
aS'20141116'
p34
aS'20150104'
p35
ag35
a.