(lp0
cpandas.tslib
Timestamp
p1
(I1359785280000000000
NNtp2
Rp3
ag1
(I1359785460000000000
NNtp4
Rp5
ag1
(I1359816780000000000
NNtp6
Rp7
ag1
(I1359816840000000000
NNtp8
Rp9
ag1
(I1359816900000000000
NNtp10
Rp11
ag1
(I1359816960000000000
NNtp12
Rp13
ag1
(I1359817020000000000
NNtp14
Rp15
ag1
(I1359817080000000000
NNtp16
Rp17
ag1
(I1359817140000000000
NNtp18
Rp19
ag1
(I1359817200000000000
NNtp20
Rp21
ag1
(I1359817200000000000
NNtp22
Rp23
ag1
(I1359817200000000000
NNtp24
Rp25
ag1
(I1359817260000000000
NNtp26
Rp27
ag1
(I1359817320000000000
NNtp28
Rp29
ag1
(I1359817320000000000
NNtp30
Rp31
ag1
(I1359817320000000000
NNtp32
Rp33
ag1
(I1359817380000000000
NNtp34
Rp35
ag1
(I1359817440000000000
NNtp36
Rp37
ag1
(I1359817500000000000
NNtp38
Rp39
ag1
(I1359817500000000000
NNtp40
Rp41
ag1
(I1359817500000000000
NNtp42
Rp43
ag1
(I1359817620000000000
NNtp44
Rp45
ag1
(I1359817680000000000
NNtp46
Rp47
ag1
(I1359817740000000000
NNtp48
Rp49
ag1
(I1359817740000000000
NNtp50
Rp51
ag1
(I1359817800000000000
NNtp52
Rp53
ag1
(I1359817800000000000
NNtp54
Rp55
ag1
(I1359817800000000000
NNtp56
Rp57
ag1
(I1359817860000000000
NNtp58
Rp59
ag1
(I1359817920000000000
NNtp60
Rp61
ag1
(I1359818040000000000
NNtp62
Rp63
ag1
(I1359818040000000000
NNtp64
Rp65
ag1
(I1359818040000000000
NNtp66
Rp67
ag1
(I1359818100000000000
NNtp68
Rp69
ag1
(I1359818100000000000
NNtp70
Rp71
ag1
(I1360328400000000000
NNtp72
Rp73
ag1
(I1360328460000000000
NNtp74
Rp75
ag1
(I1360328520000000000
NNtp76
Rp77
ag1
(I1360328580000000000
NNtp78
Rp79
ag1
(I1360328580000000000
NNtp80
Rp81
ag1
(I1360328580000000000
NNtp82
Rp83
ag1
(I1360328640000000000
NNtp84
Rp85
ag1
(I1360328700000000000
NNtp86
Rp87
ag1
(I1360328700000000000
NNtp88
Rp89
ag1
(I1360328700000000000
NNtp90
Rp91
ag1
(I1360328760000000000
NNtp92
Rp93
ag1
(I1360328760000000000
NNtp94
Rp95
ag1
(I1360328760000000000
NNtp96
Rp97
ag1
(I1360328820000000000
NNtp98
Rp99
ag1
(I1360328880000000000
NNtp100
Rp101
ag1
(I1360328940000000000
NNtp102
Rp103
ag1
(I1360329000000000000
NNtp104
Rp105
ag1
(I1360329000000000000
NNtp106
Rp107
ag1
(I1360329000000000000
NNtp108
Rp109
ag1
(I1360329060000000000
NNtp110
Rp111
ag1
(I1360329060000000000
NNtp112
Rp113
ag1
(I1360329060000000000
NNtp114
Rp115
ag1
(I1360329120000000000
NNtp116
Rp117
ag1
(I1360329180000000000
NNtp118
Rp119
ag1
(I1360329240000000000
NNtp120
Rp121
ag1
(I1360329300000000000
NNtp122
Rp123
ag1
(I1360329300000000000
NNtp124
Rp125
ag1
(I1360329300000000000
NNtp126
Rp127
ag1
(I1360329360000000000
NNtp128
Rp129
ag1
(I1360329420000000000
NNtp130
Rp131
ag1
(I1360329420000000000
NNtp132
Rp133
ag1
(I1360329420000000000
NNtp134
Rp135
ag1
(I1360329480000000000
NNtp136
Rp137
ag1
(I1360329480000000000
NNtp138
Rp139
ag1
(I1360329480000000000
NNtp140
Rp141
ag1
(I1360329540000000000
NNtp142
Rp143
ag1
(I1360329960000000000
NNtp144
Rp145
ag1
(I1360329960000000000
NNtp146
Rp147
ag1
(I1360330020000000000
NNtp148
Rp149
ag1
(I1360330020000000000
NNtp150
Rp151
ag1
(I1360330080000000000
NNtp152
Rp153
ag1
(I1360330080000000000
NNtp154
Rp155
ag1
(I1360330140000000000
NNtp156
Rp157
ag1
(I1360330140000000000
NNtp158
Rp159
ag1
(I1360330200000000000
NNtp160
Rp161
ag1
(I1360330200000000000
NNtp162
Rp163
ag1
(I1360330260000000000
NNtp164
Rp165
ag1
(I1360330260000000000
NNtp166
Rp167
ag1
(I1360330320000000000
NNtp168
Rp169
ag1
(I1360330320000000000
NNtp170
Rp171
ag1
(I1360330380000000000
NNtp172
Rp173
ag1
(I1360330380000000000
NNtp174
Rp175
ag1
(I1360330440000000000
NNtp176
Rp177
ag1
(I1360330440000000000
NNtp178
Rp179
ag1
(I1360330560000000000
NNtp180
Rp181
ag1
(I1360330680000000000
NNtp182
Rp183
ag1
(I1360330680000000000
NNtp184
Rp185
ag1
(I1360330740000000000
NNtp186
Rp187
ag1
(I1360330740000000000
NNtp188
Rp189
ag1
(I1360330800000000000
NNtp190
Rp191
ag1
(I1360330800000000000
NNtp192
Rp193
ag1
(I1360330860000000000
NNtp194
Rp195
ag1
(I1360330860000000000
NNtp196
Rp197
ag1
(I1360330920000000000
NNtp198
Rp199
ag1
(I1360330920000000000
NNtp200
Rp201
ag1
(I1360330980000000000
NNtp202
Rp203
ag1
(I1360330980000000000
NNtp204
Rp205
ag1
(I1360331040000000000
NNtp206
Rp207
ag1
(I1360331040000000000
NNtp208
Rp209
ag1
(I1360331100000000000
NNtp210
Rp211
ag1
(I1360331100000000000
NNtp212
Rp213
ag1
(I1360331160000000000
NNtp214
Rp215
ag1
(I1360331160000000000
NNtp216
Rp217
ag1
(I1360331220000000000
NNtp218
Rp219
ag1
(I1360331220000000000
NNtp220
Rp221
ag1
(I1360331280000000000
NNtp222
Rp223
ag1
(I1360331280000000000
NNtp224
Rp225
ag1
(I1360331340000000000
NNtp226
Rp227
ag1
(I1360331340000000000
NNtp228
Rp229
ag1
(I1360331400000000000
NNtp230
Rp231
ag1
(I1360331400000000000
NNtp232
Rp233
ag1
(I1360331460000000000
NNtp234
Rp235
ag1
(I1360331520000000000
NNtp236
Rp237
ag1
(I1360331520000000000
NNtp238
Rp239
ag1
(I1360331580000000000
NNtp240
Rp241
ag1
(I1360331580000000000
NNtp242
Rp243
ag1
(I1360331640000000000
NNtp244
Rp245
ag1
(I1360331640000000000
NNtp246
Rp247
ag1
(I1360331700000000000
NNtp248
Rp249
ag1
(I1360331700000000000
NNtp250
Rp251
ag1
(I1360331760000000000
NNtp252
Rp253
ag1
(I1360331760000000000
NNtp254
Rp255
ag1
(I1360331880000000000
NNtp256
Rp257
ag1
(I1360332120000000000
NNtp258
Rp259
ag1
(I1360332180000000000
NNtp260
Rp261
ag1
(I1360332240000000000
NNtp262
Rp263
ag1
(I1360332300000000000
NNtp264
Rp265
ag1
(I1360332360000000000
NNtp266
Rp267
ag1
(I1360332420000000000
NNtp268
Rp269
ag1
(I1360332480000000000
NNtp270
Rp271
ag1
(I1360332480000000000
NNtp272
Rp273
ag1
(I1360332540000000000
NNtp274
Rp275
ag1
(I1360332540000000000
NNtp276
Rp277
ag1
(I1360332600000000000
NNtp278
Rp279
ag1
(I1360332600000000000
NNtp280
Rp281
ag1
(I1360332600000000000
NNtp282
Rp283
ag1
(I1360332660000000000
NNtp284
Rp285
ag1
(I1360332660000000000
NNtp286
Rp287
ag1
(I1360332720000000000
NNtp288
Rp289
ag1
(I1360332720000000000
NNtp290
Rp291
ag1
(I1360332780000000000
NNtp292
Rp293
ag1
(I1360332780000000000
NNtp294
Rp295
ag1
(I1360332780000000000
NNtp296
Rp297
ag1
(I1360332840000000000
NNtp298
Rp299
ag1
(I1360332840000000000
NNtp300
Rp301
ag1
(I1360332840000000000
NNtp302
Rp303
ag1
(I1360332900000000000
NNtp304
Rp305
ag1
(I1360332900000000000
NNtp306
Rp307
ag1
(I1360332900000000000
NNtp308
Rp309
ag1
(I1360332960000000000
NNtp310
Rp311
ag1
(I1360332960000000000
NNtp312
Rp313
ag1
(I1360333020000000000
NNtp314
Rp315
ag1
(I1360333080000000000
NNtp316
Rp317
ag1
(I1360333140000000000
NNtp318
Rp319
ag1
(I1360333200000000000
NNtp320
Rp321
ag1
(I1360333260000000000
NNtp322
Rp323
ag1
(I1360333320000000000
NNtp324
Rp325
ag1
(I1360333380000000000
NNtp326
Rp327
ag1
(I1360333380000000000
NNtp328
Rp329
ag1
(I1360333380000000000
NNtp330
Rp331
ag1
(I1360333440000000000
NNtp332
Rp333
ag1
(I1360333440000000000
NNtp334
Rp335
ag1
(I1360333440000000000
NNtp336
Rp337
ag1
(I1360333500000000000
NNtp338
Rp339
ag1
(I1360333500000000000
NNtp340
Rp341
ag1
(I1360333500000000000
NNtp342
Rp343
ag1
(I1360333560000000000
NNtp344
Rp345
ag1
(I1360333560000000000
NNtp346
Rp347
ag1
(I1360333560000000000
NNtp348
Rp349
ag1
(I1360333620000000000
NNtp350
Rp351
ag1
(I1360333620000000000
NNtp352
Rp353
ag1
(I1360333620000000000
NNtp354
Rp355
ag1
(I1360333680000000000
NNtp356
Rp357
ag1
(I1360333680000000000
NNtp358
Rp359
ag1
(I1360333680000000000
NNtp360
Rp361
ag1
(I1360333740000000000
NNtp362
Rp363
ag1
(I1360333800000000000
NNtp364
Rp365
ag1
(I1360333860000000000
NNtp366
Rp367
ag1
(I1360333860000000000
NNtp368
Rp369
ag1
(I1360333860000000000
NNtp370
Rp371
ag1
(I1360333920000000000
NNtp372
Rp373
ag1
(I1360333920000000000
NNtp374
Rp375
ag1
(I1360333920000000000
NNtp376
Rp377
ag1
(I1360333980000000000
NNtp378
Rp379
ag1
(I1360334040000000000
NNtp380
Rp381
ag1
(I1360334100000000000
NNtp382
Rp383
ag1
(I1360334100000000000
NNtp384
Rp385
ag1
(I1360334100000000000
NNtp386
Rp387
ag1
(I1360334160000000000
NNtp388
Rp389
ag1
(I1360334160000000000
NNtp390
Rp391
ag1
(I1360334160000000000
NNtp392
Rp393
ag1
(I1360334220000000000
NNtp394
Rp395
ag1
(I1360334280000000000
NNtp396
Rp397
ag1
(I1360334340000000000
NNtp398
Rp399
ag1
(I1360334340000000000
NNtp400
Rp401
ag1
(I1360334340000000000
NNtp402
Rp403
ag1
(I1360334400000000000
NNtp404
Rp405
ag1
(I1360334400000000000
NNtp406
Rp407
ag1
(I1360334400000000000
NNtp408
Rp409
ag1
(I1360334460000000000
NNtp410
Rp411
ag1
(I1360334520000000000
NNtp412
Rp413
ag1
(I1360334580000000000
NNtp414
Rp415
ag1
(I1360334640000000000
NNtp416
Rp417
ag1
(I1360334700000000000
NNtp418
Rp419
ag1
(I1360334700000000000
NNtp420
Rp421
ag1
(I1360334700000000000
NNtp422
Rp423
ag1
(I1360334760000000000
NNtp424
Rp425
ag1
(I1360334820000000000
NNtp426
Rp427
ag1
(I1360334880000000000
NNtp428
Rp429
ag1
(I1360334940000000000
NNtp430
Rp431
ag1
(I1360335000000000000
NNtp432
Rp433
ag1
(I1360335000000000000
NNtp434
Rp435
ag1
(I1360335000000000000
NNtp436
Rp437
ag1
(I1360335060000000000
NNtp438
Rp439
ag1
(I1360335060000000000
NNtp440
Rp441
ag1
(I1360335060000000000
NNtp442
Rp443
ag1
(I1360335120000000000
NNtp444
Rp445
ag1
(I1360335180000000000
NNtp446
Rp447
ag1
(I1360335240000000000
NNtp448
Rp449
ag1
(I1360335300000000000
NNtp450
Rp451
ag1
(I1360335300000000000
NNtp452
Rp453
ag1
(I1360335300000000000
NNtp454
Rp455
ag1
(I1360335360000000000
NNtp456
Rp457
ag1
(I1360335420000000000
NNtp458
Rp459
ag1
(I1360335480000000000
NNtp460
Rp461
ag1
(I1360335540000000000
NNtp462
Rp463
ag1
(I1360335540000000000
NNtp464
Rp465
ag1
(I1360335540000000000
NNtp466
Rp467
ag1
(I1360335600000000000
NNtp468
Rp469
ag1
(I1360335600000000000
NNtp470
Rp471
ag1
(I1360335600000000000
NNtp472
Rp473
ag1
(I1360335660000000000
NNtp474
Rp475
ag1
(I1360335720000000000
NNtp476
Rp477
ag1
(I1360335780000000000
NNtp478
Rp479
ag1
(I1360335840000000000
NNtp480
Rp481
ag1
(I1360335900000000000
NNtp482
Rp483
ag1
(I1360335900000000000
NNtp484
Rp485
ag1
(I1360335900000000000
NNtp486
Rp487
ag1
(I1360335960000000000
NNtp488
Rp489
ag1
(I1360335960000000000
NNtp490
Rp491
ag1
(I1360335960000000000
NNtp492
Rp493
ag1
(I1360336020000000000
NNtp494
Rp495
ag1
(I1360336020000000000
NNtp496
Rp497
ag1
(I1360336020000000000
NNtp498
Rp499
ag1
(I1360336080000000000
NNtp500
Rp501
ag1
(I1360336140000000000
NNtp502
Rp503
ag1
(I1360336200000000000
NNtp504
Rp505
ag1
(I1360336260000000000
NNtp506
Rp507
ag1
(I1360336320000000000
NNtp508
Rp509
ag1
(I1360336320000000000
NNtp510
Rp511
ag1
(I1360336320000000000
NNtp512
Rp513
ag1
(I1360336380000000000
NNtp514
Rp515
ag1
(I1360336440000000000
NNtp516
Rp517
ag1
(I1360336500000000000
NNtp518
Rp519
ag1
(I1360336500000000000
NNtp520
Rp521
ag1
(I1360336500000000000
NNtp522
Rp523
ag1
(I1360336560000000000
NNtp524
Rp525
ag1
(I1360336620000000000
NNtp526
Rp527
ag1
(I1360336680000000000
NNtp528
Rp529
ag1
(I1360336740000000000
NNtp530
Rp531
ag1
(I1360336800000000000
NNtp532
Rp533
ag1
(I1360336860000000000
NNtp534
Rp535
ag1
(I1360336920000000000
NNtp536
Rp537
ag1
(I1360336980000000000
NNtp538
Rp539
ag1
(I1360336980000000000
NNtp540
Rp541
ag1
(I1360336980000000000
NNtp542
Rp543
ag1
(I1360337040000000000
NNtp544
Rp545
ag1
(I1360337100000000000
NNtp546
Rp547
ag1
(I1360337160000000000
NNtp548
Rp549
ag1
(I1360337220000000000
NNtp550
Rp551
ag1
(I1360337220000000000
NNtp552
Rp553
ag1
(I1360337220000000000
NNtp554
Rp555
ag1
(I1360337280000000000
NNtp556
Rp557
ag1
(I1360337340000000000
NNtp558
Rp559
ag1
(I1360337340000000000
NNtp560
Rp561
ag1
(I1360337340000000000
NNtp562
Rp563
ag1
(I1360337400000000000
NNtp564
Rp565
ag1
(I1360785360000000000
NNtp566
Rp567
ag1
(I1360785420000000000
NNtp568
Rp569
ag1
(I1360785540000000000
NNtp570
Rp571
ag1
(I1360785660000000000
NNtp572
Rp573
ag1
(I1360785720000000000
NNtp574
Rp575
ag1
(I1360785780000000000
NNtp576
Rp577
ag1
(I1360785840000000000
NNtp578
Rp579
ag1
(I1360785840000000000
NNtp580
Rp581
ag1
(I1360785900000000000
NNtp582
Rp583
ag1
(I1360785960000000000
NNtp584
Rp585
ag1
(I1360786020000000000
NNtp586
Rp587
ag1
(I1360786080000000000
NNtp588
Rp589
ag1
(I1360786140000000000
NNtp590
Rp591
ag1
(I1360786200000000000
NNtp592
Rp593
ag1
(I1360786200000000000
NNtp594
Rp595
ag1
(I1360786200000000000
NNtp596
Rp597
ag1
(I1360786260000000000
NNtp598
Rp599
ag1
(I1360786320000000000
NNtp600
Rp601
ag1
(I1360786320000000000
NNtp602
Rp603
ag1
(I1360786320000000000
NNtp604
Rp605
ag1
(I1360786380000000000
NNtp606
Rp607
ag1
(I1360786440000000000
NNtp608
Rp609
ag1
(I1360786440000000000
NNtp610
Rp611
ag1
(I1360786440000000000
NNtp612
Rp613
ag1
(I1360786500000000000
NNtp614
Rp615
ag1
(I1360786500000000000
NNtp616
Rp617
ag1
(I1360786500000000000
NNtp618
Rp619
ag1
(I1360786560000000000
NNtp620
Rp621
ag1
(I1360786560000000000
NNtp622
Rp623
ag1
(I1360786560000000000
NNtp624
Rp625
ag1
(I1360786620000000000
NNtp626
Rp627
ag1
(I1360786680000000000
NNtp628
Rp629
ag1
(I1360786740000000000
NNtp630
Rp631
ag1
(I1360786800000000000
NNtp632
Rp633
ag1
(I1360786800000000000
NNtp634
Rp635
ag1
(I1360786800000000000
NNtp636
Rp637
ag1
(I1360786860000000000
NNtp638
Rp639
ag1
(I1360786920000000000
NNtp640
Rp641
ag1
(I1360786980000000000
NNtp642
Rp643
ag1
(I1360787040000000000
NNtp644
Rp645
ag1
(I1360787100000000000
NNtp646
Rp647
ag1
(I1360787160000000000
NNtp648
Rp649
ag1
(I1360787220000000000
NNtp650
Rp651
ag1
(I1360787280000000000
NNtp652
Rp653
ag1
(I1360787280000000000
NNtp654
Rp655
ag1
(I1360787280000000000
NNtp656
Rp657
ag1
(I1360787340000000000
NNtp658
Rp659
ag1
(I1360787340000000000
NNtp660
Rp661
ag1
(I1360787340000000000
NNtp662
Rp663
ag1
(I1360787400000000000
NNtp664
Rp665
ag1
(I1360787400000000000
NNtp666
Rp667
ag1
(I1360787400000000000
NNtp668
Rp669
ag1
(I1360787460000000000
NNtp670
Rp671
ag1
(I1360787520000000000
NNtp672
Rp673
ag1
(I1360787580000000000
NNtp674
Rp675
ag1
(I1360787640000000000
NNtp676
Rp677
ag1
(I1360787700000000000
NNtp678
Rp679
ag1
(I1360787700000000000
NNtp680
Rp681
ag1
(I1360787700000000000
NNtp682
Rp683
ag1
(I1360787760000000000
NNtp684
Rp685
ag1
(I1360787760000000000
NNtp686
Rp687
ag1
(I1360787760000000000
NNtp688
Rp689
ag1
(I1360787820000000000
NNtp690
Rp691
ag1
(I1360787820000000000
NNtp692
Rp693
ag1
(I1360787820000000000
NNtp694
Rp695
ag1
(I1360787880000000000
NNtp696
Rp697
ag1
(I1360787880000000000
NNtp698
Rp699
ag1
(I1360787880000000000
NNtp700
Rp701
ag1
(I1360787940000000000
NNtp702
Rp703
ag1
(I1360787940000000000
NNtp704
Rp705
ag1
(I1360787940000000000
NNtp706
Rp707
ag1
(I1360788000000000000
NNtp708
Rp709
ag1
(I1360788060000000000
NNtp710
Rp711
ag1
(I1360788120000000000
NNtp712
Rp713
ag1
(I1360788180000000000
NNtp714
Rp715
ag1
(I1360788180000000000
NNtp716
Rp717
ag1
(I1360788180000000000
NNtp718
Rp719
ag1
(I1360788240000000000
NNtp720
Rp721
ag1
(I1360788300000000000
NNtp722
Rp723
ag1
(I1360788360000000000
NNtp724
Rp725
ag1
(I1360788360000000000
NNtp726
Rp727
ag1
(I1360788360000000000
NNtp728
Rp729
ag1
(I1360788420000000000
NNtp730
Rp731
ag1
(I1360788420000000000
NNtp732
Rp733
ag1
(I1360788480000000000
NNtp734
Rp735
ag1
(I1360788540000000000
NNtp736
Rp737
ag1
(I1360788600000000000
NNtp738
Rp739
ag1
(I1360817220000000000
NNtp740
Rp741
ag1
(I1360817220000000000
NNtp742
Rp743
ag1
(I1360819560000000000
NNtp744
Rp745
ag1
(I1360819560000000000
NNtp746
Rp747
ag1
(I1360819620000000000
NNtp748
Rp749
ag1
(I1360819680000000000
NNtp750
Rp751
ag1
(I1360819740000000000
NNtp752
Rp753
ag1
(I1360819860000000000
NNtp754
Rp755
ag1
(I1360819920000000000
NNtp756
Rp757
ag1
(I1360819980000000000
NNtp758
Rp759
ag1
(I1360819980000000000
NNtp760
Rp761
ag1
(I1360820040000000000
NNtp762
Rp763
ag1
(I1360820100000000000
NNtp764
Rp765
ag1
(I1360820100000000000
NNtp766
Rp767
ag1
(I1360820160000000000
NNtp768
Rp769
ag1
(I1360820160000000000
NNtp770
Rp771
ag1
(I1360820220000000000
NNtp772
Rp773
ag1
(I1360820280000000000
NNtp774
Rp775
ag1
(I1360820280000000000
NNtp776
Rp777
ag1
(I1360820340000000000
NNtp778
Rp779
ag1
(I1360820400000000000
NNtp780
Rp781
ag1
(I1360820400000000000
NNtp782
Rp783
ag1
(I1360820880000000000
NNtp784
Rp785
ag1
(I1360820940000000000
NNtp786
Rp787
ag1
(I1360821000000000000
NNtp788
Rp789
ag1
(I1360821060000000000
NNtp790
Rp791
ag1
(I1360821120000000000
NNtp792
Rp793
ag1
(I1360821180000000000
NNtp794
Rp795
ag1
(I1360821240000000000
NNtp796
Rp797
ag1
(I1360821300000000000
NNtp798
Rp799
ag1
(I1360821360000000000
NNtp800
Rp801
ag1
(I1360821420000000000
NNtp802
Rp803
ag1
(I1360821480000000000
NNtp804
Rp805
ag1
(I1360821540000000000
NNtp806
Rp807
ag1
(I1360821600000000000
NNtp808
Rp809
ag1
(I1360821660000000000
NNtp810
Rp811
ag1
(I1360821720000000000
NNtp812
Rp813
ag1
(I1360821780000000000
NNtp814
Rp815
ag1
(I1360821840000000000
NNtp816
Rp817
ag1
(I1360821900000000000
NNtp818
Rp819
ag1
(I1360821960000000000
NNtp820
Rp821
ag1
(I1360822020000000000
NNtp822
Rp823
ag1
(I1360822140000000000
NNtp824
Rp825
ag1
(I1360822200000000000
NNtp826
Rp827
ag1
(I1360822200000000000
NNtp828
Rp829
ag1
(I1360822200000000000
NNtp830
Rp831
ag1
(I1360822260000000000
NNtp832
Rp833
ag1
(I1360822320000000000
NNtp834
Rp835
ag1
(I1360822380000000000
NNtp836
Rp837
ag1
(I1360822440000000000
NNtp838
Rp839
ag1
(I1360822500000000000
NNtp840
Rp841
ag1
(I1360822560000000000
NNtp842
Rp843
ag1
(I1360822620000000000
NNtp844
Rp845
ag1
(I1360822620000000000
NNtp846
Rp847
ag1
(I1360822680000000000
NNtp848
Rp849
ag1
(I1360822740000000000
NNtp850
Rp851
ag1
(I1360822800000000000
NNtp852
Rp853
ag1
(I1360822860000000000
NNtp854
Rp855
ag1
(I1360822920000000000
NNtp856
Rp857
ag1
(I1360822980000000000
NNtp858
Rp859
ag1
(I1360823040000000000
NNtp860
Rp861
ag1
(I1360823100000000000
NNtp862
Rp863
ag1
(I1360823160000000000
NNtp864
Rp865
ag1
(I1360823220000000000
NNtp866
Rp867
ag1
(I1360823280000000000
NNtp868
Rp869
ag1
(I1360823340000000000
NNtp870
Rp871
ag1
(I1360823400000000000
NNtp872
Rp873
ag1
(I1360823520000000000
NNtp874
Rp875
ag1
(I1360823580000000000
NNtp876
Rp877
ag1
(I1360823640000000000
NNtp878
Rp879
ag1
(I1360823700000000000
NNtp880
Rp881
ag1
(I1360823820000000000
NNtp882
Rp883
ag1
(I1360823880000000000
NNtp884
Rp885
ag1
(I1360823940000000000
NNtp886
Rp887
ag1
(I1360846560000000000
NNtp888
Rp889
ag1
(I1360846560000000000
NNtp890
Rp891
ag1
(I1360846620000000000
NNtp892
Rp893
ag1
(I1360846620000000000
NNtp894
Rp895
ag1
(I1360846740000000000
NNtp896
Rp897
ag1
(I1360846740000000000
NNtp898
Rp899
ag1
(I1360846800000000000
NNtp900
Rp901
ag1
(I1360846800000000000
NNtp902
Rp903
ag1
(I1360846860000000000
NNtp904
Rp905
ag1
(I1360846860000000000
NNtp906
Rp907
ag1
(I1360846920000000000
NNtp908
Rp909
ag1
(I1360846920000000000
NNtp910
Rp911
ag1
(I1360846980000000000
NNtp912
Rp913
ag1
(I1360847040000000000
NNtp914
Rp915
ag1
(I1360847100000000000
NNtp916
Rp917
ag1
(I1360847160000000000
NNtp918
Rp919
ag1
(I1360847220000000000
NNtp920
Rp921
ag1
(I1360847280000000000
NNtp922
Rp923
ag1
(I1360847340000000000
NNtp924
Rp925
ag1
(I1360847400000000000
NNtp926
Rp927
ag1
(I1360847460000000000
NNtp928
Rp929
ag1
(I1360847520000000000
NNtp930
Rp931
ag1
(I1360847580000000000
NNtp932
Rp933
ag1
(I1360847640000000000
NNtp934
Rp935
ag1
(I1360847700000000000
NNtp936
Rp937
ag1
(I1360847760000000000
NNtp938
Rp939
ag1
(I1360847820000000000
NNtp940
Rp941
ag1
(I1360847820000000000
NNtp942
Rp943
ag1
(I1360847820000000000
NNtp944
Rp945
ag1
(I1360847880000000000
NNtp946
Rp947
ag1
(I1360847880000000000
NNtp948
Rp949
ag1
(I1360847880000000000
NNtp950
Rp951
ag1
(I1360847940000000000
NNtp952
Rp953
ag1
(I1360847940000000000
NNtp954
Rp955
ag1
(I1360847940000000000
NNtp956
Rp957
ag1
(I1360848000000000000
NNtp958
Rp959
ag1
(I1360848000000000000
NNtp960
Rp961
ag1
(I1360848000000000000
NNtp962
Rp963
ag1
(I1360848060000000000
NNtp964
Rp965
ag1
(I1360848120000000000
NNtp966
Rp967
ag1
(I1360848120000000000
NNtp968
Rp969
ag1
(I1360848120000000000
NNtp970
Rp971
ag1
(I1360848180000000000
NNtp972
Rp973
ag1
(I1360848180000000000
NNtp974
Rp975
ag1
(I1360848180000000000
NNtp976
Rp977
ag1
(I1360848240000000000
NNtp978
Rp979
ag1
(I1360848240000000000
NNtp980
Rp981
ag1
(I1360848240000000000
NNtp982
Rp983
ag1
(I1360848300000000000
NNtp984
Rp985
ag1
(I1360848300000000000
NNtp986
Rp987
ag1
(I1360848300000000000
NNtp988
Rp989
ag1
(I1360848360000000000
NNtp990
Rp991
ag1
(I1360848360000000000
NNtp992
Rp993
ag1
(I1360848360000000000
NNtp994
Rp995
ag1
(I1360848420000000000
NNtp996
Rp997
ag1
(I1360848480000000000
NNtp998
Rp999
ag1
(I1360848540000000000
NNtp1000
Rp1001
ag1
(I1360848540000000000
NNtp1002
Rp1003
ag1
(I1360848540000000000
NNtp1004
Rp1005
ag1
(I1360848600000000000
NNtp1006
Rp1007
ag1
(I1360848600000000000
NNtp1008
Rp1009
ag1
(I1360848600000000000
NNtp1010
Rp1011
ag1
(I1360848660000000000
NNtp1012
Rp1013
ag1
(I1360848660000000000
NNtp1014
Rp1015
ag1
(I1360848660000000000
NNtp1016
Rp1017
ag1
(I1360848720000000000
NNtp1018
Rp1019
ag1
(I1360848780000000000
NNtp1020
Rp1021
ag1
(I1360848780000000000
NNtp1022
Rp1023
ag1
(I1360848780000000000
NNtp1024
Rp1025
ag1
(I1360848840000000000
NNtp1026
Rp1027
ag1
(I1360848840000000000
NNtp1028
Rp1029
ag1
(I1360848840000000000
NNtp1030
Rp1031
ag1
(I1360848900000000000
NNtp1032
Rp1033
ag1
(I1360848900000000000
NNtp1034
Rp1035
ag1
(I1360848900000000000
NNtp1036
Rp1037
ag1
(I1360848960000000000
NNtp1038
Rp1039
ag1
(I1360848960000000000
NNtp1040
Rp1041
ag1
(I1360848960000000000
NNtp1042
Rp1043
ag1
(I1360849020000000000
NNtp1044
Rp1045
ag1
(I1360849020000000000
NNtp1046
Rp1047
ag1
(I1360849020000000000
NNtp1048
Rp1049
ag1
(I1360849080000000000
NNtp1050
Rp1051
ag1
(I1360849080000000000
NNtp1052
Rp1053
ag1
(I1360849080000000000
NNtp1054
Rp1055
ag1
(I1360849140000000000
NNtp1056
Rp1057
ag1
(I1360849140000000000
NNtp1058
Rp1059
ag1
(I1360849140000000000
NNtp1060
Rp1061
ag1
(I1360849200000000000
NNtp1062
Rp1063
ag1
(I1360849200000000000
NNtp1064
Rp1065
ag1
(I1360849200000000000
NNtp1066
Rp1067
ag1
(I1360849260000000000
NNtp1068
Rp1069
ag1
(I1360849260000000000
NNtp1070
Rp1071
ag1
(I1360849260000000000
NNtp1072
Rp1073
ag1
(I1360849320000000000
NNtp1074
Rp1075
ag1
(I1360849320000000000
NNtp1076
Rp1077
ag1
(I1360849320000000000
NNtp1078
Rp1079
ag1
(I1360849380000000000
NNtp1080
Rp1081
ag1
(I1360849440000000000
NNtp1082
Rp1083
ag1
(I1360849500000000000
NNtp1084
Rp1085
ag1
(I1360849560000000000
NNtp1086
Rp1087
ag1
(I1360849620000000000
NNtp1088
Rp1089
ag1
(I1360849680000000000
NNtp1090
Rp1091
ag1
(I1360849740000000000
NNtp1092
Rp1093
ag1
(I1360849800000000000
NNtp1094
Rp1095
ag1
(I1360849800000000000
NNtp1096
Rp1097
ag1
(I1360849800000000000
NNtp1098
Rp1099
ag1
(I1360849860000000000
NNtp1100
Rp1101
ag1
(I1360849920000000000
NNtp1102
Rp1103
ag1
(I1360849980000000000
NNtp1104
Rp1105
ag1
(I1360850040000000000
NNtp1106
Rp1107
ag1
(I1360850100000000000
NNtp1108
Rp1109
ag1
(I1360850100000000000
NNtp1110
Rp1111
ag1
(I1360850100000000000
NNtp1112
Rp1113
ag1
(I1360850160000000000
NNtp1114
Rp1115
ag1
(I1360850160000000000
NNtp1116
Rp1117
ag1
(I1360850160000000000
NNtp1118
Rp1119
ag1
(I1360850220000000000
NNtp1120
Rp1121
ag1
(I1360850220000000000
NNtp1122
Rp1123
ag1
(I1360850220000000000
NNtp1124
Rp1125
ag1
(I1360850280000000000
NNtp1126
Rp1127
ag1
(I1360850280000000000
NNtp1128
Rp1129
ag1
(I1360850280000000000
NNtp1130
Rp1131
ag1
(I1360850340000000000
NNtp1132
Rp1133
ag1
(I1360850400000000000
NNtp1134
Rp1135
ag1
(I1360850460000000000
NNtp1136
Rp1137
ag1
(I1360850520000000000
NNtp1138
Rp1139
ag1
(I1360850520000000000
NNtp1140
Rp1141
ag1
(I1360850520000000000
NNtp1142
Rp1143
ag1
(I1360850580000000000
NNtp1144
Rp1145
ag1
(I1360850640000000000
NNtp1146
Rp1147
ag1
(I1360850700000000000
NNtp1148
Rp1149
ag1
(I1360850760000000000
NNtp1150
Rp1151
ag1
(I1360850820000000000
NNtp1152
Rp1153
ag1
(I1360850880000000000
NNtp1154
Rp1155
ag1
(I1360850940000000000
NNtp1156
Rp1157
ag1
(I1360850940000000000
NNtp1158
Rp1159
ag1
(I1360850940000000000
NNtp1160
Rp1161
ag1
(I1360851000000000000
NNtp1162
Rp1163
ag1
(I1360851000000000000
NNtp1164
Rp1165
ag1
(I1360851000000000000
NNtp1166
Rp1167
ag1
(I1360851060000000000
NNtp1168
Rp1169
ag1
(I1360851060000000000
NNtp1170
Rp1171
ag1
(I1360851060000000000
NNtp1172
Rp1173
ag1
(I1360851120000000000
NNtp1174
Rp1175
ag1
(I1360851120000000000
NNtp1176
Rp1177
ag1
(I1360851120000000000
NNtp1178
Rp1179
ag1
(I1360851180000000000
NNtp1180
Rp1181
ag1
(I1360851240000000000
NNtp1182
Rp1183
ag1
(I1360851300000000000
NNtp1184
Rp1185
ag1
(I1360851360000000000
NNtp1186
Rp1187
ag1
(I1360851420000000000
NNtp1188
Rp1189
ag1
(I1360851480000000000
NNtp1190
Rp1191
ag1
(I1360851540000000000
NNtp1192
Rp1193
ag1
(I1360851600000000000
NNtp1194
Rp1195
ag1
(I1360851660000000000
NNtp1196
Rp1197
ag1
(I1360851660000000000
NNtp1198
Rp1199
ag1
(I1360851660000000000
NNtp1200
Rp1201
ag1
(I1360851720000000000
NNtp1202
Rp1203
ag1
(I1360851780000000000
NNtp1204
Rp1205
ag1
(I1361036640000000000
NNtp1206
Rp1207
ag1
(I1361036640000000000
NNtp1208
Rp1209
ag1
(I1361036700000000000
NNtp1210
Rp1211
ag1
(I1361036760000000000
NNtp1212
Rp1213
ag1
(I1361036820000000000
NNtp1214
Rp1215
ag1
(I1361036820000000000
NNtp1216
Rp1217
ag1
(I1361036820000000000
NNtp1218
Rp1219
ag1
(I1361036880000000000
NNtp1220
Rp1221
ag1
(I1361036880000000000
NNtp1222
Rp1223
ag1
(I1361036940000000000
NNtp1224
Rp1225
ag1
(I1361036940000000000
NNtp1226
Rp1227
ag1
(I1361037000000000000
NNtp1228
Rp1229
ag1
(I1361037000000000000
NNtp1230
Rp1231
ag1
(I1361037060000000000
NNtp1232
Rp1233
ag1
(I1361037060000000000
NNtp1234
Rp1235
ag1
(I1361037180000000000
NNtp1236
Rp1237
ag1
(I1361037840000000000
NNtp1238
Rp1239
ag1
(I1361037840000000000
NNtp1240
Rp1241
ag1
(I1361037900000000000
NNtp1242
Rp1243
ag1
(I1361037900000000000
NNtp1244
Rp1245
ag1
(I1361037960000000000
NNtp1246
Rp1247
ag1
(I1361037960000000000
NNtp1248
Rp1249
ag1
(I1361038380000000000
NNtp1250
Rp1251
ag1
(I1361038380000000000
NNtp1252
Rp1253
ag1
(I1361038560000000000
NNtp1254
Rp1255
ag1
(I1361038620000000000
NNtp1256
Rp1257
ag1
(I1361038680000000000
NNtp1258
Rp1259
ag1
(I1361038740000000000
NNtp1260
Rp1261
ag1
(I1361038740000000000
NNtp1262
Rp1263
ag1
(I1361038740000000000
NNtp1264
Rp1265
ag1
(I1361038800000000000
NNtp1266
Rp1267
ag1
(I1361038860000000000
NNtp1268
Rp1269
ag1
(I1361038920000000000
NNtp1270
Rp1271
ag1
(I1361038920000000000
NNtp1272
Rp1273
ag1
(I1361038920000000000
NNtp1274
Rp1275
ag1
(I1361038980000000000
NNtp1276
Rp1277
ag1
(I1361038980000000000
NNtp1278
Rp1279
ag1
(I1361038980000000000
NNtp1280
Rp1281
ag1
(I1361039040000000000
NNtp1282
Rp1283
ag1
(I1361039220000000000
NNtp1284
Rp1285
ag1
(I1361039460000000000
NNtp1286
Rp1287
ag1
(I1361039520000000000
NNtp1288
Rp1289
ag1
(I1361039520000000000
NNtp1290
Rp1291
ag1
(I1361039520000000000
NNtp1292
Rp1293
ag1
(I1361039580000000000
NNtp1294
Rp1295
ag1
(I1361039580000000000
NNtp1296
Rp1297
ag1
(I1361039580000000000
NNtp1298
Rp1299
ag1
(I1361039640000000000
NNtp1300
Rp1301
ag1
(I1361039640000000000
NNtp1302
Rp1303
ag1
(I1361039640000000000
NNtp1304
Rp1305
ag1
(I1361039700000000000
NNtp1306
Rp1307
ag1
(I1361039700000000000
NNtp1308
Rp1309
ag1
(I1361039760000000000
NNtp1310
Rp1311
ag1
(I1361039820000000000
NNtp1312
Rp1313
ag1
(I1361039880000000000
NNtp1314
Rp1315
ag1
(I1361039940000000000
NNtp1316
Rp1317
ag1
(I1361039940000000000
NNtp1318
Rp1319
ag1
(I1361039940000000000
NNtp1320
Rp1321
ag1
(I1361040000000000000
NNtp1322
Rp1323
ag1
(I1361040000000000000
NNtp1324
Rp1325
ag1
(I1361040000000000000
NNtp1326
Rp1327
ag1
(I1361040060000000000
NNtp1328
Rp1329
ag1
(I1361040060000000000
NNtp1330
Rp1331
ag1
(I1361040060000000000
NNtp1332
Rp1333
ag1
(I1361040120000000000
NNtp1334
Rp1335
ag1
(I1361040120000000000
NNtp1336
Rp1337
ag1
(I1361040120000000000
NNtp1338
Rp1339
ag1
(I1361040180000000000
NNtp1340
Rp1341
ag1
(I1361040180000000000
NNtp1342
Rp1343
ag1
(I1361040180000000000
NNtp1344
Rp1345
ag1
(I1361040240000000000
NNtp1346
Rp1347
ag1
(I1361040240000000000
NNtp1348
Rp1349
ag1
(I1361040240000000000
NNtp1350
Rp1351
ag1
(I1361040300000000000
NNtp1352
Rp1353
ag1
(I1361040360000000000
NNtp1354
Rp1355
ag1
(I1361040420000000000
NNtp1356
Rp1357
ag1
(I1361040420000000000
NNtp1358
Rp1359
ag1
(I1361040420000000000
NNtp1360
Rp1361
ag1
(I1361040480000000000
NNtp1362
Rp1363
ag1
(I1361040480000000000
NNtp1364
Rp1365
ag1
(I1361040480000000000
NNtp1366
Rp1367
ag1
(I1361040540000000000
NNtp1368
Rp1369
ag1
(I1361040540000000000
NNtp1370
Rp1371
ag1
(I1361040540000000000
NNtp1372
Rp1373
ag1
(I1361040600000000000
NNtp1374
Rp1375
ag1
(I1361040600000000000
NNtp1376
Rp1377
ag1
(I1361040600000000000
NNtp1378
Rp1379
ag1
(I1361040660000000000
NNtp1380
Rp1381
ag1
(I1361040660000000000
NNtp1382
Rp1383
ag1
(I1361040660000000000
NNtp1384
Rp1385
ag1
(I1361040720000000000
NNtp1386
Rp1387
ag1
(I1361040720000000000
NNtp1388
Rp1389
ag1
(I1361040720000000000
NNtp1390
Rp1391
ag1
(I1361040780000000000
NNtp1392
Rp1393
ag1
(I1361040780000000000
NNtp1394
Rp1395
ag1
(I1361040780000000000
NNtp1396
Rp1397
ag1
(I1361040840000000000
NNtp1398
Rp1399
ag1
(I1361040840000000000
NNtp1400
Rp1401
ag1
(I1361040840000000000
NNtp1402
Rp1403
ag1
(I1361040900000000000
NNtp1404
Rp1405
ag1
(I1361040900000000000
NNtp1406
Rp1407
ag1
(I1361040900000000000
NNtp1408
Rp1409
ag1
(I1361040960000000000
NNtp1410
Rp1411
ag1
(I1361040960000000000
NNtp1412
Rp1413
ag1
(I1361040960000000000
NNtp1414
Rp1415
ag1
(I1361041020000000000
NNtp1416
Rp1417
ag1
(I1361041020000000000
NNtp1418
Rp1419
ag1
(I1361041020000000000
NNtp1420
Rp1421
ag1
(I1361041080000000000
NNtp1422
Rp1423
ag1
(I1361041080000000000
NNtp1424
Rp1425
ag1
(I1361041080000000000
NNtp1426
Rp1427
ag1
(I1361041140000000000
NNtp1428
Rp1429
ag1
(I1361041200000000000
NNtp1430
Rp1431
ag1
(I1361041260000000000
NNtp1432
Rp1433
ag1
(I1361041320000000000
NNtp1434
Rp1435
ag1
(I1361041380000000000
NNtp1436
Rp1437
ag1
(I1361041380000000000
NNtp1438
Rp1439
ag1
(I1361041380000000000
NNtp1440
Rp1441
ag1
(I1361041440000000000
NNtp1442
Rp1443
ag1
(I1361041440000000000
NNtp1444
Rp1445
ag1
(I1361041440000000000
NNtp1446
Rp1447
ag1
(I1361041500000000000
NNtp1448
Rp1449
ag1
(I1361041500000000000
NNtp1450
Rp1451
ag1
(I1361041500000000000
NNtp1452
Rp1453
ag1
(I1361041560000000000
NNtp1454
Rp1455
ag1
(I1361041560000000000
NNtp1456
Rp1457
ag1
(I1361041560000000000
NNtp1458
Rp1459
ag1
(I1361041620000000000
NNtp1460
Rp1461
ag1
(I1361041680000000000
NNtp1462
Rp1463
ag1
(I1361041740000000000
NNtp1464
Rp1465
ag1
(I1361041740000000000
NNtp1466
Rp1467
ag1
(I1361041740000000000
NNtp1468
Rp1469
ag1
(I1361041800000000000
NNtp1470
Rp1471
ag1
(I1361041800000000000
NNtp1472
Rp1473
ag1
(I1361041800000000000
NNtp1474
Rp1475
ag1
(I1361041860000000000
NNtp1476
Rp1477
ag1
(I1361041920000000000
NNtp1478
Rp1479
ag1
(I1361041980000000000
NNtp1480
Rp1481
ag1
(I1361041980000000000
NNtp1482
Rp1483
ag1
(I1361041980000000000
NNtp1484
Rp1485
ag1
(I1361042040000000000
NNtp1486
Rp1487
ag1
(I1361042040000000000
NNtp1488
Rp1489
ag1
(I1361042040000000000
NNtp1490
Rp1491
ag1
(I1361042100000000000
NNtp1492
Rp1493
ag1
(I1361042160000000000
NNtp1494
Rp1495
ag1
(I1361042220000000000
NNtp1496
Rp1497
ag1
(I1361106720000000000
NNtp1498
Rp1499
ag1
(I1361106960000000000
NNtp1500
Rp1501
ag1
(I1361106960000000000
NNtp1502
Rp1503
ag1
(I1361107320000000000
NNtp1504
Rp1505
ag1
(I1361107380000000000
NNtp1506
Rp1507
ag1
(I1361107560000000000
NNtp1508
Rp1509
ag1
(I1361107680000000000
NNtp1510
Rp1511
ag1
(I1361107800000000000
NNtp1512
Rp1513
ag1
(I1361107860000000000
NNtp1514
Rp1515
ag1
(I1361107920000000000
NNtp1516
Rp1517
ag1
(I1361107980000000000
NNtp1518
Rp1519
ag1
(I1361108040000000000
NNtp1520
Rp1521
ag1
(I1361108100000000000
NNtp1522
Rp1523
ag1
(I1361108100000000000
NNtp1524
Rp1525
ag1
(I1361108100000000000
NNtp1526
Rp1527
ag1
(I1361108160000000000
NNtp1528
Rp1529
ag1
(I1361108160000000000
NNtp1530
Rp1531
ag1
(I1361108160000000000
NNtp1532
Rp1533
ag1
(I1361108220000000000
NNtp1534
Rp1535
ag1
(I1361108220000000000
NNtp1536
Rp1537
ag1
(I1361108220000000000
NNtp1538
Rp1539
ag1
(I1361108280000000000
NNtp1540
Rp1541
ag1
(I1361108340000000000
NNtp1542
Rp1543
ag1
(I1361108340000000000
NNtp1544
Rp1545
ag1
(I1361108340000000000
NNtp1546
Rp1547
ag1
(I1361108400000000000
NNtp1548
Rp1549
ag1
(I1361108400000000000
NNtp1550
Rp1551
ag1
(I1361108400000000000
NNtp1552
Rp1553
ag1
(I1361108460000000000
NNtp1554
Rp1555
ag1
(I1361108460000000000
NNtp1556
Rp1557
ag1
(I1361108460000000000
NNtp1558
Rp1559
ag1
(I1361108520000000000
NNtp1560
Rp1561
ag1
(I1361108580000000000
NNtp1562
Rp1563
ag1
(I1361108640000000000
NNtp1564
Rp1565
ag1
(I1361108640000000000
NNtp1566
Rp1567
ag1
(I1361108640000000000
NNtp1568
Rp1569
ag1
(I1361108700000000000
NNtp1570
Rp1571
ag1
(I1361108700000000000
NNtp1572
Rp1573
ag1
(I1361108700000000000
NNtp1574
Rp1575
ag1
(I1361108760000000000
NNtp1576
Rp1577
ag1
(I1361108820000000000
NNtp1578
Rp1579
ag1
(I1361108880000000000
NNtp1580
Rp1581
ag1
(I1361108880000000000
NNtp1582
Rp1583
ag1
(I1361108880000000000
NNtp1584
Rp1585
ag1
(I1361108940000000000
NNtp1586
Rp1587
ag1
(I1361109000000000000
NNtp1588
Rp1589
ag1
(I1361109060000000000
NNtp1590
Rp1591
ag1
(I1361109120000000000
NNtp1592
Rp1593
ag1
(I1361109120000000000
NNtp1594
Rp1595
ag1
(I1361109120000000000
NNtp1596
Rp1597
ag1
(I1361109180000000000
NNtp1598
Rp1599
ag1
(I1361109240000000000
NNtp1600
Rp1601
ag1
(I1361109300000000000
NNtp1602
Rp1603
ag1
(I1361109360000000000
NNtp1604
Rp1605
ag1
(I1361109360000000000
NNtp1606
Rp1607
ag1
(I1361109360000000000
NNtp1608
Rp1609
ag1
(I1361109420000000000
NNtp1610
Rp1611
ag1
(I1361109420000000000
NNtp1612
Rp1613
ag1
(I1361109420000000000
NNtp1614
Rp1615
ag1
(I1361109480000000000
NNtp1616
Rp1617
ag1
(I1361109540000000000
NNtp1618
Rp1619
ag1
(I1361109600000000000
NNtp1620
Rp1621
ag1
(I1361109600000000000
NNtp1622
Rp1623
ag1
(I1361109600000000000
NNtp1624
Rp1625
ag1
(I1361109660000000000
NNtp1626
Rp1627
ag1
(I1361109660000000000
NNtp1628
Rp1629
ag1
(I1361109660000000000
NNtp1630
Rp1631
ag1
(I1361109720000000000
NNtp1632
Rp1633
ag1
(I1361109720000000000
NNtp1634
Rp1635
ag1
(I1361109720000000000
NNtp1636
Rp1637
ag1
(I1361109780000000000
NNtp1638
Rp1639
ag1
(I1361109780000000000
NNtp1640
Rp1641
ag1
(I1361109780000000000
NNtp1642
Rp1643
ag1
(I1361109840000000000
NNtp1644
Rp1645
ag1
(I1361109900000000000
NNtp1646
Rp1647
ag1
(I1361109960000000000
NNtp1648
Rp1649
ag1
(I1361110020000000000
NNtp1650
Rp1651
ag1
(I1361110080000000000
NNtp1652
Rp1653
ag1
(I1361110140000000000
NNtp1654
Rp1655
ag1
(I1361110200000000000
NNtp1656
Rp1657
ag1
(I1361110260000000000
NNtp1658
Rp1659
ag1
(I1361110320000000000
NNtp1660
Rp1661
ag1
(I1361110320000000000
NNtp1662
Rp1663
ag1
(I1361110320000000000
NNtp1664
Rp1665
ag1
(I1361110380000000000
NNtp1666
Rp1667
ag1
(I1361110380000000000
NNtp1668
Rp1669
ag1
(I1361110380000000000
NNtp1670
Rp1671
ag1
(I1361110440000000000
NNtp1672
Rp1673
ag1
(I1361110500000000000
NNtp1674
Rp1675
ag1
(I1361110560000000000
NNtp1676
Rp1677
ag1
(I1361110620000000000
NNtp1678
Rp1679
ag1
(I1361110620000000000
NNtp1680
Rp1681
ag1
(I1361110620000000000
NNtp1682
Rp1683
ag1
(I1361110680000000000
NNtp1684
Rp1685
ag1
(I1361110680000000000
NNtp1686
Rp1687
ag1
(I1361110680000000000
NNtp1688
Rp1689
ag1
(I1361110740000000000
NNtp1690
Rp1691
ag1
(I1361110800000000000
NNtp1692
Rp1693
ag1
(I1361110860000000000
NNtp1694
Rp1695
ag1
(I1361110920000000000
NNtp1696
Rp1697
ag1
(I1361110920000000000
NNtp1698
Rp1699
ag1
(I1361110920000000000
NNtp1700
Rp1701
ag1
(I1361110980000000000
NNtp1702
Rp1703
ag1
(I1361110980000000000
NNtp1704
Rp1705
ag1
(I1361110980000000000
NNtp1706
Rp1707
ag1
(I1361111040000000000
NNtp1708
Rp1709
ag1
(I1361111040000000000
NNtp1710
Rp1711
ag1
(I1361111040000000000
NNtp1712
Rp1713
ag1
(I1361111100000000000
NNtp1714
Rp1715
ag1
(I1361111100000000000
NNtp1716
Rp1717
ag1
(I1361111100000000000
NNtp1718
Rp1719
ag1
(I1361111160000000000
NNtp1720
Rp1721
ag1
(I1361111160000000000
NNtp1722
Rp1723
ag1
(I1361111160000000000
NNtp1724
Rp1725
ag1
(I1361111220000000000
NNtp1726
Rp1727
ag1
(I1361111220000000000
NNtp1728
Rp1729
ag1
(I1361111220000000000
NNtp1730
Rp1731
ag1
(I1361111280000000000
NNtp1732
Rp1733
ag1
(I1361111280000000000
NNtp1734
Rp1735
ag1
(I1361111280000000000
NNtp1736
Rp1737
ag1
(I1361111340000000000
NNtp1738
Rp1739
ag1
(I1361111340000000000
NNtp1740
Rp1741
ag1
(I1361111340000000000
NNtp1742
Rp1743
ag1
(I1361111400000000000
NNtp1744
Rp1745
ag1
(I1361111400000000000
NNtp1746
Rp1747
ag1
(I1361111400000000000
NNtp1748
Rp1749
ag1
(I1361111460000000000
NNtp1750
Rp1751
ag1
(I1361111460000000000
NNtp1752
Rp1753
ag1
(I1361111460000000000
NNtp1754
Rp1755
ag1
(I1361111520000000000
NNtp1756
Rp1757
ag1
(I1361111520000000000
NNtp1758
Rp1759
ag1
(I1361111520000000000
NNtp1760
Rp1761
ag1
(I1361111580000000000
NNtp1762
Rp1763
ag1
(I1361111580000000000
NNtp1764
Rp1765
ag1
(I1361111580000000000
NNtp1766
Rp1767
ag1
(I1361111640000000000
NNtp1768
Rp1769
ag1
(I1361111640000000000
NNtp1770
Rp1771
ag1
(I1361111640000000000
NNtp1772
Rp1773
ag1
(I1361111700000000000
NNtp1774
Rp1775
ag1
(I1361111700000000000
NNtp1776
Rp1777
ag1
(I1361111700000000000
NNtp1778
Rp1779
ag1
(I1361111760000000000
NNtp1780
Rp1781
ag1
(I1361111760000000000
NNtp1782
Rp1783
ag1
(I1361111760000000000
NNtp1784
Rp1785
ag1
(I1361111820000000000
NNtp1786
Rp1787
ag1
(I1361111820000000000
NNtp1788
Rp1789
ag1
(I1361111820000000000
NNtp1790
Rp1791
ag1
(I1361111880000000000
NNtp1792
Rp1793
ag1
(I1361111880000000000
NNtp1794
Rp1795
ag1
(I1361111880000000000
NNtp1796
Rp1797
ag1
(I1361111940000000000
NNtp1798
Rp1799
ag1
(I1361111940000000000
NNtp1800
Rp1801
ag1
(I1361111940000000000
NNtp1802
Rp1803
ag1
(I1361112000000000000
NNtp1804
Rp1805
ag1
(I1361112000000000000
NNtp1806
Rp1807
ag1
(I1361112000000000000
NNtp1808
Rp1809
ag1
(I1361112060000000000
NNtp1810
Rp1811
ag1
(I1361112060000000000
NNtp1812
Rp1813
ag1
(I1361112060000000000
NNtp1814
Rp1815
ag1
(I1361112120000000000
NNtp1816
Rp1817
ag1
(I1361112180000000000
NNtp1818
Rp1819
ag1
(I1361112180000000000
NNtp1820
Rp1821
ag1
(I1361112180000000000
NNtp1822
Rp1823
ag1
(I1361112240000000000
NNtp1824
Rp1825
ag1
(I1361112240000000000
NNtp1826
Rp1827
ag1
(I1361112240000000000
NNtp1828
Rp1829
ag1
(I1361112300000000000
NNtp1830
Rp1831
ag1
(I1361112300000000000
NNtp1832
Rp1833
ag1
(I1361112300000000000
NNtp1834
Rp1835
ag1
(I1361112360000000000
NNtp1836
Rp1837
ag1
(I1361112420000000000
NNtp1838
Rp1839
ag1
(I1361112480000000000
NNtp1840
Rp1841
ag1
(I1361112540000000000
NNtp1842
Rp1843
ag1
(I1361112600000000000
NNtp1844
Rp1845
ag1
(I1361112660000000000
NNtp1846
Rp1847
ag1
(I1361112720000000000
NNtp1848
Rp1849
ag1
(I1361112840000000000
NNtp1850
Rp1851
ag1
(I1361112840000000000
NNtp1852
Rp1853
ag1
(I1361112840000000000
NNtp1854
Rp1855
ag1
(I1361112900000000000
NNtp1856
Rp1857
ag1
(I1361112960000000000
NNtp1858
Rp1859
ag1
(I1361113020000000000
NNtp1860
Rp1861
ag1
(I1361113080000000000
NNtp1862
Rp1863
ag1
(I1361113140000000000
NNtp1864
Rp1865
ag1
(I1361113140000000000
NNtp1866
Rp1867
ag1
(I1361113140000000000
NNtp1868
Rp1869
ag1
(I1361113200000000000
NNtp1870
Rp1871
ag1
(I1361113260000000000
NNtp1872
Rp1873
ag1
(I1361113320000000000
NNtp1874
Rp1875
ag1
(I1361113380000000000
NNtp1876
Rp1877
ag1
(I1361113440000000000
NNtp1878
Rp1879
ag1
(I1361113500000000000
NNtp1880
Rp1881
ag1
(I1361113560000000000
NNtp1882
Rp1883
ag1
(I1361113560000000000
NNtp1884
Rp1885
ag1
(I1361113560000000000
NNtp1886
Rp1887
ag1
(I1361113620000000000
NNtp1888
Rp1889
ag1
(I1361113620000000000
NNtp1890
Rp1891
ag1
(I1361113620000000000
NNtp1892
Rp1893
ag1
(I1361113680000000000
NNtp1894
Rp1895
ag1
(I1361113680000000000
NNtp1896
Rp1897
ag1
(I1361113680000000000
NNtp1898
Rp1899
ag1
(I1361113740000000000
NNtp1900
Rp1901
ag1
(I1361113740000000000
NNtp1902
Rp1903
ag1
(I1361113740000000000
NNtp1904
Rp1905
ag1
(I1361113800000000000
NNtp1906
Rp1907
ag1
(I1361113860000000000
NNtp1908
Rp1909
ag1
(I1361113920000000000
NNtp1910
Rp1911
ag1
(I1361113980000000000
NNtp1912
Rp1913
ag1
(I1361114040000000000
NNtp1914
Rp1915
ag1
(I1361114100000000000
NNtp1916
Rp1917
ag1
(I1361114100000000000
NNtp1918
Rp1919
ag1
(I1361114100000000000
NNtp1920
Rp1921
ag1
(I1361114160000000000
NNtp1922
Rp1923
ag1
(I1361114160000000000
NNtp1924
Rp1925
ag1
(I1361114160000000000
NNtp1926
Rp1927
ag1
(I1361114220000000000
NNtp1928
Rp1929
ag1
(I1361114280000000000
NNtp1930
Rp1931
ag1
(I1361114340000000000
NNtp1932
Rp1933
ag1
(I1361114340000000000
NNtp1934
Rp1935
ag1
(I1361114340000000000
NNtp1936
Rp1937
ag1
(I1361114400000000000
NNtp1938
Rp1939
ag1
(I1361114460000000000
NNtp1940
Rp1941
ag1
(I1361114520000000000
NNtp1942
Rp1943
ag1
(I1361114580000000000
NNtp1944
Rp1945
ag1
(I1361114640000000000
NNtp1946
Rp1947
ag1
(I1361114640000000000
NNtp1948
Rp1949
ag1
(I1361114640000000000
NNtp1950
Rp1951
ag1
(I1361132940000000000
NNtp1952
Rp1953
ag1
(I1361132940000000000
NNtp1954
Rp1955
ag1
(I1361133060000000000
NNtp1956
Rp1957
ag1
(I1361133180000000000
NNtp1958
Rp1959
ag1
(I1361133180000000000
NNtp1960
Rp1961
ag1
(I1361133240000000000
NNtp1962
Rp1963
ag1
(I1361133240000000000
NNtp1964
Rp1965
ag1
(I1361133300000000000
NNtp1966
Rp1967
ag1
(I1361133300000000000
NNtp1968
Rp1969
ag1
(I1361133360000000000
NNtp1970
Rp1971
ag1
(I1361133420000000000
NNtp1972
Rp1973
ag1
(I1361133480000000000
NNtp1974
Rp1975
ag1
(I1361133540000000000
NNtp1976
Rp1977
ag1
(I1361133540000000000
NNtp1978
Rp1979
ag1
(I1361133600000000000
NNtp1980
Rp1981
ag1
(I1361133600000000000
NNtp1982
Rp1983
ag1
(I1361133660000000000
NNtp1984
Rp1985
ag1
(I1361133660000000000
NNtp1986
Rp1987
ag1
(I1361133660000000000
NNtp1988
Rp1989
ag1
(I1361133720000000000
NNtp1990
Rp1991
ag1
(I1361133780000000000
NNtp1992
Rp1993
ag1
(I1361133780000000000
NNtp1994
Rp1995
ag1
(I1361133840000000000
NNtp1996
Rp1997
ag1
(I1361133840000000000
NNtp1998
Rp1999
ag1
(I1361133840000000000
NNtp2000
Rp2001
ag1
(I1361133900000000000
NNtp2002
Rp2003
ag1
(I1361133900000000000
NNtp2004
Rp2005
ag1
(I1361133900000000000
NNtp2006
Rp2007
ag1
(I1361133960000000000
NNtp2008
Rp2009
ag1
(I1361134080000000000
NNtp2010
Rp2011
ag1
(I1361134140000000000
NNtp2012
Rp2013
ag1
(I1361134140000000000
NNtp2014
Rp2015
ag1
(I1361134140000000000
NNtp2016
Rp2017
ag1
(I1361134200000000000
NNtp2018
Rp2019
ag1
(I1361134200000000000
NNtp2020
Rp2021
ag1
(I1361134200000000000
NNtp2022
Rp2023
ag1
(I1361134260000000000
NNtp2024
Rp2025
ag1
(I1361134260000000000
NNtp2026
Rp2027
ag1
(I1361134320000000000
NNtp2028
Rp2029
ag1
(I1361134320000000000
NNtp2030
Rp2031
ag1
(I1361134380000000000
NNtp2032
Rp2033
ag1
(I1361134380000000000
NNtp2034
Rp2035
ag1
(I1361134380000000000
NNtp2036
Rp2037
ag1
(I1361134440000000000
NNtp2038
Rp2039
ag1
(I1361134440000000000
NNtp2040
Rp2041
ag1
(I1361134440000000000
NNtp2042
Rp2043
ag1
(I1361134500000000000
NNtp2044
Rp2045
ag1
(I1361134500000000000
NNtp2046
Rp2047
ag1
(I1361134500000000000
NNtp2048
Rp2049
ag1
(I1361134560000000000
NNtp2050
Rp2051
ag1
(I1361134560000000000
NNtp2052
Rp2053
ag1
(I1361134560000000000
NNtp2054
Rp2055
ag1
(I1361134620000000000
NNtp2056
Rp2057
ag1
(I1361134620000000000
NNtp2058
Rp2059
ag1
(I1361134620000000000
NNtp2060
Rp2061
ag1
(I1361134680000000000
NNtp2062
Rp2063
ag1
(I1361134740000000000
NNtp2064
Rp2065
ag1
(I1361134800000000000
NNtp2066
Rp2067
ag1
(I1361134800000000000
NNtp2068
Rp2069
ag1
(I1361134800000000000
NNtp2070
Rp2071
ag1
(I1361134860000000000
NNtp2072
Rp2073
ag1
(I1361134860000000000
NNtp2074
Rp2075
ag1
(I1361134860000000000
NNtp2076
Rp2077
ag1
(I1361134920000000000
NNtp2078
Rp2079
ag1
(I1361134920000000000
NNtp2080
Rp2081
ag1
(I1361134920000000000
NNtp2082
Rp2083
ag1
(I1361134980000000000
NNtp2084
Rp2085
ag1
(I1361134980000000000
NNtp2086
Rp2087
ag1
(I1361134980000000000
NNtp2088
Rp2089
ag1
(I1361135040000000000
NNtp2090
Rp2091
ag1
(I1361135040000000000
NNtp2092
Rp2093
ag1
(I1361135040000000000
NNtp2094
Rp2095
ag1
(I1361135100000000000
NNtp2096
Rp2097
ag1
(I1361135100000000000
NNtp2098
Rp2099
ag1
(I1361135100000000000
NNtp2100
Rp2101
ag1
(I1361135160000000000
NNtp2102
Rp2103
ag1
(I1361135160000000000
NNtp2104
Rp2105
ag1
(I1361135160000000000
NNtp2106
Rp2107
ag1
(I1361135220000000000
NNtp2108
Rp2109
ag1
(I1361135220000000000
NNtp2110
Rp2111
ag1
(I1361135220000000000
NNtp2112
Rp2113
ag1
(I1361135280000000000
NNtp2114
Rp2115
ag1
(I1361135340000000000
NNtp2116
Rp2117
ag1
(I1361135400000000000
NNtp2118
Rp2119
ag1
(I1361135460000000000
NNtp2120
Rp2121
ag1
(I1361135520000000000
NNtp2122
Rp2123
ag1
(I1361135580000000000
NNtp2124
Rp2125
ag1
(I1361135640000000000
NNtp2126
Rp2127
ag1
(I1361135700000000000
NNtp2128
Rp2129
ag1
(I1361135760000000000
NNtp2130
Rp2131
ag1
(I1361135820000000000
NNtp2132
Rp2133
ag1
(I1361135880000000000
NNtp2134
Rp2135
ag1
(I1361135940000000000
NNtp2136
Rp2137
ag1
(I1361135940000000000
NNtp2138
Rp2139
ag1
(I1361135940000000000
NNtp2140
Rp2141
ag1
(I1361136000000000000
NNtp2142
Rp2143
ag1
(I1361136000000000000
NNtp2144
Rp2145
ag1
(I1361136000000000000
NNtp2146
Rp2147
ag1
(I1361136060000000000
NNtp2148
Rp2149
ag1
(I1361136060000000000
NNtp2150
Rp2151
ag1
(I1361136060000000000
NNtp2152
Rp2153
ag1
(I1361136120000000000
NNtp2154
Rp2155
ag1
(I1361136120000000000
NNtp2156
Rp2157
ag1
(I1361136120000000000
NNtp2158
Rp2159
ag1
(I1361136180000000000
NNtp2160
Rp2161
ag1
(I1361136180000000000
NNtp2162
Rp2163
ag1
(I1361136180000000000
NNtp2164
Rp2165
ag1
(I1361136240000000000
NNtp2166
Rp2167
ag1
(I1361136300000000000
NNtp2168
Rp2169
ag1
(I1361136360000000000
NNtp2170
Rp2171
ag1
(I1361136420000000000
NNtp2172
Rp2173
ag1
(I1361136480000000000
NNtp2174
Rp2175
ag1
(I1361136540000000000
NNtp2176
Rp2177
ag1
(I1361136600000000000
NNtp2178
Rp2179
ag1
(I1361136660000000000
NNtp2180
Rp2181
ag1
(I1361136720000000000
NNtp2182
Rp2183
ag1
(I1361136780000000000
NNtp2184
Rp2185
ag1
(I1361136840000000000
NNtp2186
Rp2187
ag1
(I1361136900000000000
NNtp2188
Rp2189
ag1
(I1361136960000000000
NNtp2190
Rp2191
ag1
(I1361137020000000000
NNtp2192
Rp2193
ag1
(I1361137080000000000
NNtp2194
Rp2195
ag1
(I1361137140000000000
NNtp2196
Rp2197
ag1
(I1361137200000000000
NNtp2198
Rp2199
ag1
(I1361137200000000000
NNtp2200
Rp2201
ag1
(I1361137200000000000
NNtp2202
Rp2203
ag1
(I1361137260000000000
NNtp2204
Rp2205
ag1
(I1361137260000000000
NNtp2206
Rp2207
ag1
(I1361137260000000000
NNtp2208
Rp2209
ag1
(I1361137320000000000
NNtp2210
Rp2211
ag1
(I1361137320000000000
NNtp2212
Rp2213
ag1
(I1361137320000000000
NNtp2214
Rp2215
ag1
(I1361137380000000000
NNtp2216
Rp2217
ag1
(I1361137380000000000
NNtp2218
Rp2219
ag1
(I1361137380000000000
NNtp2220
Rp2221
ag1
(I1361137440000000000
NNtp2222
Rp2223
ag1
(I1361137440000000000
NNtp2224
Rp2225
ag1
(I1361137440000000000
NNtp2226
Rp2227
ag1
(I1361137500000000000
NNtp2228
Rp2229
ag1
(I1361137500000000000
NNtp2230
Rp2231
ag1
(I1361137500000000000
NNtp2232
Rp2233
ag1
(I1361137560000000000
NNtp2234
Rp2235
ag1
(I1361137560000000000
NNtp2236
Rp2237
ag1
(I1361137560000000000
NNtp2238
Rp2239
ag1
(I1361137620000000000
NNtp2240
Rp2241
ag1
(I1361137680000000000
NNtp2242
Rp2243
ag1
(I1361137740000000000
NNtp2244
Rp2245
ag1
(I1361137800000000000
NNtp2246
Rp2247
ag1
(I1361137860000000000
NNtp2248
Rp2249
ag1
(I1361363520000000000
NNtp2250
Rp2251
ag1
(I1361363580000000000
NNtp2252
Rp2253
ag1
(I1361363580000000000
NNtp2254
Rp2255
ag1
(I1361363820000000000
NNtp2256
Rp2257
ag1
(I1361363820000000000
NNtp2258
Rp2259
ag1
(I1361363880000000000
NNtp2260
Rp2261
ag1
(I1361363940000000000
NNtp2262
Rp2263
ag1
(I1361363940000000000
NNtp2264
Rp2265
ag1
(I1361363940000000000
NNtp2266
Rp2267
ag1
(I1361364000000000000
NNtp2268
Rp2269
ag1
(I1361364060000000000
NNtp2270
Rp2271
ag1
(I1361364060000000000
NNtp2272
Rp2273
ag1
(I1361364120000000000
NNtp2274
Rp2275
ag1
(I1361364180000000000
NNtp2276
Rp2277
ag1
(I1361364240000000000
NNtp2278
Rp2279
ag1
(I1361364240000000000
NNtp2280
Rp2281
ag1
(I1361364300000000000
NNtp2282
Rp2283
ag1
(I1361364300000000000
NNtp2284
Rp2285
ag1
(I1361364300000000000
NNtp2286
Rp2287
ag1
(I1361364360000000000
NNtp2288
Rp2289
ag1
(I1361364360000000000
NNtp2290
Rp2291
ag1
(I1361364420000000000
NNtp2292
Rp2293
ag1
(I1361364420000000000
NNtp2294
Rp2295
ag1
(I1361364600000000000
NNtp2296
Rp2297
ag1
(I1361364600000000000
NNtp2298
Rp2299
ag1
(I1361364660000000000
NNtp2300
Rp2301
ag1
(I1361364660000000000
NNtp2302
Rp2303
ag1
(I1361364660000000000
NNtp2304
Rp2305
ag1
(I1361364720000000000
NNtp2306
Rp2307
ag1
(I1361364720000000000
NNtp2308
Rp2309
ag1
(I1361364720000000000
NNtp2310
Rp2311
ag1
(I1361364780000000000
NNtp2312
Rp2313
ag1
(I1361364840000000000
NNtp2314
Rp2315
ag1
(I1361364900000000000
NNtp2316
Rp2317
ag1
(I1361364960000000000
NNtp2318
Rp2319
ag1
(I1361364960000000000
NNtp2320
Rp2321
ag1
(I1361364960000000000
NNtp2322
Rp2323
ag1
(I1361365020000000000
NNtp2324
Rp2325
ag1
(I1361365080000000000
NNtp2326
Rp2327
ag1
(I1361365140000000000
NNtp2328
Rp2329
ag1
(I1361365200000000000
NNtp2330
Rp2331
ag1
(I1361365260000000000
NNtp2332
Rp2333
ag1
(I1361365320000000000
NNtp2334
Rp2335
ag1
(I1361365380000000000
NNtp2336
Rp2337
ag1
(I1361365440000000000
NNtp2338
Rp2339
ag1
(I1361365440000000000
NNtp2340
Rp2341
ag1
(I1361365440000000000
NNtp2342
Rp2343
ag1
(I1361365500000000000
NNtp2344
Rp2345
ag1
(I1361365500000000000
NNtp2346
Rp2347
ag1
(I1361365500000000000
NNtp2348
Rp2349
ag1
(I1361365560000000000
NNtp2350
Rp2351
ag1
(I1361365560000000000
NNtp2352
Rp2353
ag1
(I1361365560000000000
NNtp2354
Rp2355
ag1
(I1361365620000000000
NNtp2356
Rp2357
ag1
(I1361365620000000000
NNtp2358
Rp2359
ag1
(I1361365620000000000
NNtp2360
Rp2361
ag1
(I1361365680000000000
NNtp2362
Rp2363
ag1
(I1361365680000000000
NNtp2364
Rp2365
ag1
(I1361365680000000000
NNtp2366
Rp2367
ag1
(I1361365740000000000
NNtp2368
Rp2369
ag1
(I1361365740000000000
NNtp2370
Rp2371
ag1
(I1361365740000000000
NNtp2372
Rp2373
ag1
(I1361365800000000000
NNtp2374
Rp2375
ag1
(I1361365800000000000
NNtp2376
Rp2377
ag1
(I1361365800000000000
NNtp2378
Rp2379
ag1
(I1361365860000000000
NNtp2380
Rp2381
ag1
(I1361365860000000000
NNtp2382
Rp2383
ag1
(I1361365860000000000
NNtp2384
Rp2385
ag1
(I1361365920000000000
NNtp2386
Rp2387
ag1
(I1361365980000000000
NNtp2388
Rp2389
ag1
(I1361366040000000000
NNtp2390
Rp2391
ag1
(I1361366040000000000
NNtp2392
Rp2393
ag1
(I1361366040000000000
NNtp2394
Rp2395
ag1
(I1361366100000000000
NNtp2396
Rp2397
ag1
(I1361366160000000000
NNtp2398
Rp2399
ag1
(I1361366220000000000
NNtp2400
Rp2401
ag1
(I1361366220000000000
NNtp2402
Rp2403
ag1
(I1361366220000000000
NNtp2404
Rp2405
ag1
(I1361366280000000000
NNtp2406
Rp2407
ag1
(I1361366340000000000
NNtp2408
Rp2409
ag1
(I1361366340000000000
NNtp2410
Rp2411
ag1
(I1361366340000000000
NNtp2412
Rp2413
ag1
(I1361366400000000000
NNtp2414
Rp2415
ag1
(I1361366400000000000
NNtp2416
Rp2417
ag1
(I1361366400000000000
NNtp2418
Rp2419
ag1
(I1361366460000000000
NNtp2420
Rp2421
ag1
(I1361366460000000000
NNtp2422
Rp2423
ag1
(I1361366460000000000
NNtp2424
Rp2425
ag1
(I1361366520000000000
NNtp2426
Rp2427
ag1
(I1361366520000000000
NNtp2428
Rp2429
ag1
(I1361366580000000000
NNtp2430
Rp2431
ag1
(I1361366580000000000
NNtp2432
Rp2433
ag1
(I1361366640000000000
NNtp2434
Rp2435
ag1
(I1361366700000000000
NNtp2436
Rp2437
ag1
(I1361366700000000000
NNtp2438
Rp2439
ag1
(I1361366700000000000
NNtp2440
Rp2441
ag1
(I1361366760000000000
NNtp2442
Rp2443
ag1
(I1361366820000000000
NNtp2444
Rp2445
ag1
(I1361366820000000000
NNtp2446
Rp2447
ag1
(I1361366820000000000
NNtp2448
Rp2449
ag1
(I1361366880000000000
NNtp2450
Rp2451
ag1
(I1361366880000000000
NNtp2452
Rp2453
ag1
(I1361366880000000000
NNtp2454
Rp2455
ag1
(I1361366940000000000
NNtp2456
Rp2457
ag1
(I1361366940000000000
NNtp2458
Rp2459
ag1
(I1361366940000000000
NNtp2460
Rp2461
ag1
(I1361367000000000000
NNtp2462
Rp2463
ag1
(I1361367000000000000
NNtp2464
Rp2465
ag1
(I1361367000000000000
NNtp2466
Rp2467
ag1
(I1361367060000000000
NNtp2468
Rp2469
ag1
(I1361367060000000000
NNtp2470
Rp2471
ag1
(I1361367060000000000
NNtp2472
Rp2473
ag1
(I1361367120000000000
NNtp2474
Rp2475
ag1
(I1361367120000000000
NNtp2476
Rp2477
ag1
(I1361367120000000000
NNtp2478
Rp2479
ag1
(I1361367180000000000
NNtp2480
Rp2481
ag1
(I1361367180000000000
NNtp2482
Rp2483
ag1
(I1361367180000000000
NNtp2484
Rp2485
ag1
(I1361367240000000000
NNtp2486
Rp2487
ag1
(I1361367240000000000
NNtp2488
Rp2489
ag1
(I1361367240000000000
NNtp2490
Rp2491
ag1
(I1361367300000000000
NNtp2492
Rp2493
ag1
(I1361367300000000000
NNtp2494
Rp2495
ag1
(I1361367300000000000
NNtp2496
Rp2497
ag1
(I1361367360000000000
NNtp2498
Rp2499
ag1
(I1361367360000000000
NNtp2500
Rp2501
ag1
(I1361367360000000000
NNtp2502
Rp2503
ag1
(I1361367420000000000
NNtp2504
Rp2505
ag1
(I1361367420000000000
NNtp2506
Rp2507
ag1
(I1361367420000000000
NNtp2508
Rp2509
ag1
(I1361367480000000000
NNtp2510
Rp2511
ag1
(I1361367540000000000
NNtp2512
Rp2513
ag1
(I1361367540000000000
NNtp2514
Rp2515
ag1
(I1361367540000000000
NNtp2516
Rp2517
ag1
(I1361367600000000000
NNtp2518
Rp2519
ag1
(I1361367600000000000
NNtp2520
Rp2521
ag1
(I1361367600000000000
NNtp2522
Rp2523
ag1
(I1361367660000000000
NNtp2524
Rp2525
ag1
(I1361367660000000000
NNtp2526
Rp2527
ag1
(I1361367660000000000
NNtp2528
Rp2529
ag1
(I1361367720000000000
NNtp2530
Rp2531
ag1
(I1361367720000000000
NNtp2532
Rp2533
ag1
(I1361367720000000000
NNtp2534
Rp2535
ag1
(I1361367780000000000
NNtp2536
Rp2537
ag1
(I1361367780000000000
NNtp2538
Rp2539
ag1
(I1361367780000000000
NNtp2540
Rp2541
ag1
(I1361367840000000000
NNtp2542
Rp2543
ag1
(I1361367840000000000
NNtp2544
Rp2545
ag1
(I1361367840000000000
NNtp2546
Rp2547
ag1
(I1361367900000000000
NNtp2548
Rp2549
ag1
(I1361367960000000000
NNtp2550
Rp2551
ag1
(I1361368020000000000
NNtp2552
Rp2553
ag1
(I1361368080000000000
NNtp2554
Rp2555
ag1
(I1361368140000000000
NNtp2556
Rp2557
ag1
(I1361368200000000000
NNtp2558
Rp2559
ag1
(I1361368260000000000
NNtp2560
Rp2561
ag1
(I1361368260000000000
NNtp2562
Rp2563
ag1
(I1361368260000000000
NNtp2564
Rp2565
ag1
(I1361368320000000000
NNtp2566
Rp2567
ag1
(I1361368320000000000
NNtp2568
Rp2569
ag1
(I1361368320000000000
NNtp2570
Rp2571
ag1
(I1361368380000000000
NNtp2572
Rp2573
ag1
(I1361368440000000000
NNtp2574
Rp2575
ag1
(I1361368500000000000
NNtp2576
Rp2577
ag1
(I1361368560000000000
NNtp2578
Rp2579
ag1
(I1361368620000000000
NNtp2580
Rp2581
ag1
(I1361368680000000000
NNtp2582
Rp2583
ag1
(I1361368740000000000
NNtp2584
Rp2585
ag1
(I1361368800000000000
NNtp2586
Rp2587
ag1
(I1361368860000000000
NNtp2588
Rp2589
ag1
(I1361368920000000000
NNtp2590
Rp2591
ag1
(I1361368980000000000
NNtp2592
Rp2593
ag1
(I1361369040000000000
NNtp2594
Rp2595
ag1
(I1361369100000000000
NNtp2596
Rp2597
ag1
(I1361369100000000000
NNtp2598
Rp2599
ag1
(I1361369100000000000
NNtp2600
Rp2601
ag1
(I1361369160000000000
NNtp2602
Rp2603
ag1
(I1361369160000000000
NNtp2604
Rp2605
ag1
(I1361369160000000000
NNtp2606
Rp2607
ag1
(I1361369220000000000
NNtp2608
Rp2609
ag1
(I1361369220000000000
NNtp2610
Rp2611
ag1
(I1361369220000000000
NNtp2612
Rp2613
ag1
(I1361369280000000000
NNtp2614
Rp2615
ag1
(I1361369280000000000
NNtp2616
Rp2617
ag1
(I1361369280000000000
NNtp2618
Rp2619
ag1
(I1361369340000000000
NNtp2620
Rp2621
ag1
(I1361369340000000000
NNtp2622
Rp2623
ag1
(I1361369340000000000
NNtp2624
Rp2625
ag1
(I1361369400000000000
NNtp2626
Rp2627
ag1
(I1361369460000000000
NNtp2628
Rp2629
ag1
(I1361369520000000000
NNtp2630
Rp2631
ag1
(I1361369580000000000
NNtp2632
Rp2633
ag1
(I1361369640000000000
NNtp2634
Rp2635
ag1
(I1361369700000000000
NNtp2636
Rp2637
ag1
(I1361369760000000000
NNtp2638
Rp2639
ag1
(I1361369760000000000
NNtp2640
Rp2641
ag1
(I1361369760000000000
NNtp2642
Rp2643
ag1
(I1361369820000000000
NNtp2644
Rp2645
ag1
(I1361369820000000000
NNtp2646
Rp2647
ag1
(I1361369820000000000
NNtp2648
Rp2649
ag1
(I1361369880000000000
NNtp2650
Rp2651
ag1
(I1361369880000000000
NNtp2652
Rp2653
ag1
(I1361369880000000000
NNtp2654
Rp2655
ag1
(I1361369940000000000
NNtp2656
Rp2657
ag1
(I1361370000000000000
NNtp2658
Rp2659
ag1
(I1361370060000000000
NNtp2660
Rp2661
ag1
(I1361370060000000000
NNtp2662
Rp2663
ag1
(I1361370060000000000
NNtp2664
Rp2665
ag1
(I1361370120000000000
NNtp2666
Rp2667
ag1
(I1361370120000000000
NNtp2668
Rp2669
ag1
(I1361370120000000000
NNtp2670
Rp2671
ag1
(I1361370180000000000
NNtp2672
Rp2673
ag1
(I1361370240000000000
NNtp2674
Rp2675
ag1
(I1361370300000000000
NNtp2676
Rp2677
ag1
(I1361370360000000000
NNtp2678
Rp2679
ag1
(I1361370360000000000
NNtp2680
Rp2681
ag1
(I1361370360000000000
NNtp2682
Rp2683
ag1
(I1361370420000000000
NNtp2684
Rp2685
ag1
(I1361370480000000000
NNtp2686
Rp2687
ag1
(I1361370540000000000
NNtp2688
Rp2689
ag1
(I1361370540000000000
NNtp2690
Rp2691
ag1
(I1361370540000000000
NNtp2692
Rp2693
ag1
(I1361370600000000000
NNtp2694
Rp2695
ag1
(I1361370660000000000
NNtp2696
Rp2697
ag1
(I1361370660000000000
NNtp2698
Rp2699
ag1
(I1361370660000000000
NNtp2700
Rp2701
ag1
(I1361370720000000000
NNtp2702
Rp2703
ag1
(I1361370780000000000
NNtp2704
Rp2705
ag1
(I1361370840000000000
NNtp2706
Rp2707
ag1
(I1361370900000000000
NNtp2708
Rp2709
ag1
(I1361370900000000000
NNtp2710
Rp2711
ag1
(I1361370900000000000
NNtp2712
Rp2713
ag1
(I1361370960000000000
NNtp2714
Rp2715
ag1
(I1361370960000000000
NNtp2716
Rp2717
ag1
(I1361370960000000000
NNtp2718
Rp2719
ag1
(I1361371020000000000
NNtp2720
Rp2721
ag1
(I1361371020000000000
NNtp2722
Rp2723
ag1
(I1361371020000000000
NNtp2724
Rp2725
ag1
(I1361371080000000000
NNtp2726
Rp2727
ag1
(I1361371080000000000
NNtp2728
Rp2729
ag1
(I1361371080000000000
NNtp2730
Rp2731
ag1
(I1361371140000000000
NNtp2732
Rp2733
ag1
(I1361371200000000000
NNtp2734
Rp2735
ag1
(I1361371260000000000
NNtp2736
Rp2737
ag1
(I1361371260000000000
NNtp2738
Rp2739
ag1
(I1361371260000000000
NNtp2740
Rp2741
ag1
(I1361371320000000000
NNtp2742
Rp2743
ag1
(I1361371380000000000
NNtp2744
Rp2745
ag1
(I1361500560000000000
NNtp2746
Rp2747
ag1
(I1361500620000000000
NNtp2748
Rp2749
ag1
(I1361500680000000000
NNtp2750
Rp2751
ag1
(I1361500680000000000
NNtp2752
Rp2753
ag1
(I1361500680000000000
NNtp2754
Rp2755
ag1
(I1361500740000000000
NNtp2756
Rp2757
ag1
(I1361500740000000000
NNtp2758
Rp2759
ag1
(I1361500740000000000
NNtp2760
Rp2761
ag1
(I1361500800000000000
NNtp2762
Rp2763
ag1
(I1361500800000000000
NNtp2764
Rp2765
ag1
(I1361500800000000000
NNtp2766
Rp2767
ag1
(I1361500860000000000
NNtp2768
Rp2769
ag1
(I1361500860000000000
NNtp2770
Rp2771
ag1
(I1361500860000000000
NNtp2772
Rp2773
ag1
(I1361500920000000000
NNtp2774
Rp2775
ag1
(I1361500920000000000
NNtp2776
Rp2777
ag1
(I1361500920000000000
NNtp2778
Rp2779
ag1
(I1361500980000000000
NNtp2780
Rp2781
ag1
(I1361500980000000000
NNtp2782
Rp2783
ag1
(I1361500980000000000
NNtp2784
Rp2785
ag1
(I1361501040000000000
NNtp2786
Rp2787
ag1
(I1361501040000000000
NNtp2788
Rp2789
ag1
(I1361501040000000000
NNtp2790
Rp2791
ag1
(I1361501100000000000
NNtp2792
Rp2793
ag1
(I1361501100000000000
NNtp2794
Rp2795
ag1
(I1361501100000000000
NNtp2796
Rp2797
ag1
(I1361501160000000000
NNtp2798
Rp2799
ag1
(I1361501160000000000
NNtp2800
Rp2801
ag1
(I1361501160000000000
NNtp2802
Rp2803
ag1
(I1361501220000000000
NNtp2804
Rp2805
ag1
(I1361501280000000000
NNtp2806
Rp2807
ag1
(I1361501340000000000
NNtp2808
Rp2809
ag1
(I1361501400000000000
NNtp2810
Rp2811
ag1
(I1361501460000000000
NNtp2812
Rp2813
ag1
(I1361501460000000000
NNtp2814
Rp2815
ag1
(I1361501460000000000
NNtp2816
Rp2817
ag1
(I1361501520000000000
NNtp2818
Rp2819
ag1
(I1361501580000000000
NNtp2820
Rp2821
ag1
(I1361501640000000000
NNtp2822
Rp2823
ag1
(I1361501700000000000
NNtp2824
Rp2825
ag1
(I1361501700000000000
NNtp2826
Rp2827
ag1
(I1361501700000000000
NNtp2828
Rp2829
ag1
(I1361501760000000000
NNtp2830
Rp2831
ag1
(I1361501820000000000
NNtp2832
Rp2833
ag1
(I1361501880000000000
NNtp2834
Rp2835
ag1
(I1361501940000000000
NNtp2836
Rp2837
ag1
(I1361502000000000000
NNtp2838
Rp2839
ag1
(I1361502060000000000
NNtp2840
Rp2841
ag1
(I1361524800000000000
NNtp2842
Rp2843
ag1
(I1361524860000000000
NNtp2844
Rp2845
ag1
(I1361524920000000000
NNtp2846
Rp2847
ag1
(I1361524920000000000
NNtp2848
Rp2849
ag1
(I1361524980000000000
NNtp2850
Rp2851
ag1
(I1361524980000000000
NNtp2852
Rp2853
ag1
(I1361525040000000000
NNtp2854
Rp2855
ag1
(I1361525160000000000
NNtp2856
Rp2857
ag1
(I1361525220000000000
NNtp2858
Rp2859
ag1
(I1361525220000000000
NNtp2860
Rp2861
ag1
(I1361525280000000000
NNtp2862
Rp2863
ag1
(I1361525280000000000
NNtp2864
Rp2865
ag1
(I1361525280000000000
NNtp2866
Rp2867
ag1
(I1361525340000000000
NNtp2868
Rp2869
ag1
(I1361525400000000000
NNtp2870
Rp2871
ag1
(I1361525460000000000
NNtp2872
Rp2873
ag1
(I1361525520000000000
NNtp2874
Rp2875
ag1
(I1361525580000000000
NNtp2876
Rp2877
ag1
(I1361525640000000000
NNtp2878
Rp2879
ag1
(I1361525700000000000
NNtp2880
Rp2881
ag1
(I1361525700000000000
NNtp2882
Rp2883
ag1
(I1361525700000000000
NNtp2884
Rp2885
ag1
(I1361525760000000000
NNtp2886
Rp2887
ag1
(I1361525760000000000
NNtp2888
Rp2889
ag1
(I1361525760000000000
NNtp2890
Rp2891
ag1
(I1361525820000000000
NNtp2892
Rp2893
ag1
(I1361525820000000000
NNtp2894
Rp2895
ag1
(I1361525820000000000
NNtp2896
Rp2897
ag1
(I1361525880000000000
NNtp2898
Rp2899
ag1
(I1361525880000000000
NNtp2900
Rp2901
ag1
(I1361525880000000000
NNtp2902
Rp2903
ag1
(I1361525940000000000
NNtp2904
Rp2905
ag1
(I1361525940000000000
NNtp2906
Rp2907
ag1
(I1361525940000000000
NNtp2908
Rp2909
ag1
(I1361526000000000000
NNtp2910
Rp2911
ag1
(I1361526000000000000
NNtp2912
Rp2913
ag1
(I1361526000000000000
NNtp2914
Rp2915
ag1
(I1361526060000000000
NNtp2916
Rp2917
ag1
(I1361526060000000000
NNtp2918
Rp2919
ag1
(I1361526120000000000
NNtp2920
Rp2921
ag1
(I1361526120000000000
NNtp2922
Rp2923
ag1
(I1361526120000000000
NNtp2924
Rp2925
ag1
(I1361526180000000000
NNtp2926
Rp2927
ag1
(I1361526240000000000
NNtp2928
Rp2929
ag1
(I1361526300000000000
NNtp2930
Rp2931
ag1
(I1361526360000000000
NNtp2932
Rp2933
ag1
(I1361526360000000000
NNtp2934
Rp2935
ag1
(I1361526360000000000
NNtp2936
Rp2937
ag1
(I1361526420000000000
NNtp2938
Rp2939
ag1
(I1361526420000000000
NNtp2940
Rp2941
ag1
(I1361526420000000000
NNtp2942
Rp2943
ag1
(I1361526480000000000
NNtp2944
Rp2945
ag1
(I1361526540000000000
NNtp2946
Rp2947
ag1
(I1361526600000000000
NNtp2948
Rp2949
ag1
(I1361526600000000000
NNtp2950
Rp2951
ag1
(I1361526600000000000
NNtp2952
Rp2953
ag1
(I1361526660000000000
NNtp2954
Rp2955
ag1
(I1361526720000000000
NNtp2956
Rp2957
ag1
(I1361526720000000000
NNtp2958
Rp2959
ag1
(I1361526720000000000
NNtp2960
Rp2961
ag1
(I1361526780000000000
NNtp2962
Rp2963
ag1
(I1361526780000000000
NNtp2964
Rp2965
ag1
(I1361526780000000000
NNtp2966
Rp2967
ag1
(I1361526840000000000
NNtp2968
Rp2969
ag1
(I1361526840000000000
NNtp2970
Rp2971
ag1
(I1361526840000000000
NNtp2972
Rp2973
ag1
(I1361526900000000000
NNtp2974
Rp2975
ag1
(I1361526960000000000
NNtp2976
Rp2977
ag1
(I1361527020000000000
NNtp2978
Rp2979
ag1
(I1361527080000000000
NNtp2980
Rp2981
ag1
(I1361527080000000000
NNtp2982
Rp2983
ag1
(I1361527080000000000
NNtp2984
Rp2985
ag1
(I1361527140000000000
NNtp2986
Rp2987
ag1
(I1361527140000000000
NNtp2988
Rp2989
ag1
(I1361527140000000000
NNtp2990
Rp2991
ag1
(I1361527200000000000
NNtp2992
Rp2993
ag1
(I1361527200000000000
NNtp2994
Rp2995
ag1
(I1361527200000000000
NNtp2996
Rp2997
ag1
(I1361527260000000000
NNtp2998
Rp2999
ag1
(I1361527260000000000
NNtp3000
Rp3001
ag1
(I1361527260000000000
NNtp3002
Rp3003
ag1
(I1361527320000000000
NNtp3004
Rp3005
ag1
(I1361527320000000000
NNtp3006
Rp3007
ag1
(I1361527320000000000
NNtp3008
Rp3009
ag1
(I1361527380000000000
NNtp3010
Rp3011
ag1
(I1361527440000000000
NNtp3012
Rp3013
ag1
(I1361527500000000000
NNtp3014
Rp3015
ag1
(I1361527560000000000
NNtp3016
Rp3017
ag1
(I1361527620000000000
NNtp3018
Rp3019
ag1
(I1361527620000000000
NNtp3020
Rp3021
ag1
(I1361527620000000000
NNtp3022
Rp3023
ag1
(I1361527680000000000
NNtp3024
Rp3025
ag1
(I1361527680000000000
NNtp3026
Rp3027
ag1
(I1361527680000000000
NNtp3028
Rp3029
ag1
(I1361527740000000000
NNtp3030
Rp3031
ag1
(I1361527800000000000
NNtp3032
Rp3033
ag1
(I1361527860000000000
NNtp3034
Rp3035
ag1
(I1361527860000000000
NNtp3036
Rp3037
ag1
(I1361527860000000000
NNtp3038
Rp3039
ag1
(I1361527920000000000
NNtp3040
Rp3041
ag1
(I1361527980000000000
NNtp3042
Rp3043
ag1
(I1361527980000000000
NNtp3044
Rp3045
ag1
(I1361527980000000000
NNtp3046
Rp3047
ag1
(I1361528040000000000
NNtp3048
Rp3049
ag1
(I1361528100000000000
NNtp3050
Rp3051
ag1
(I1361528160000000000
NNtp3052
Rp3053
ag1
(I1361528160000000000
NNtp3054
Rp3055
ag1
(I1361528160000000000
NNtp3056
Rp3057
ag1
(I1361528220000000000
NNtp3058
Rp3059
ag1
(I1361528220000000000
NNtp3060
Rp3061
ag1
(I1361528220000000000
NNtp3062
Rp3063
ag1
(I1361528280000000000
NNtp3064
Rp3065
ag1
(I1361528280000000000
NNtp3066
Rp3067
ag1
(I1361528280000000000
NNtp3068
Rp3069
ag1
(I1361528340000000000
NNtp3070
Rp3071
ag1
(I1361528340000000000
NNtp3072
Rp3073
ag1
(I1361528340000000000
NNtp3074
Rp3075
ag1
(I1361528400000000000
NNtp3076
Rp3077
ag1
(I1361528460000000000
NNtp3078
Rp3079
ag1
(I1361528520000000000
NNtp3080
Rp3081
ag1
(I1361528580000000000
NNtp3082
Rp3083
ag1
(I1361528580000000000
NNtp3084
Rp3085
ag1
(I1361528580000000000
NNtp3086
Rp3087
ag1
(I1361528640000000000
NNtp3088
Rp3089
ag1
(I1361528640000000000
NNtp3090
Rp3091
ag1
(I1361528640000000000
NNtp3092
Rp3093
ag1
(I1361528700000000000
NNtp3094
Rp3095
ag1
(I1361528760000000000
NNtp3096
Rp3097
ag1
(I1361528820000000000
NNtp3098
Rp3099
ag1
(I1361528880000000000
NNtp3100
Rp3101
ag1
(I1361528940000000000
NNtp3102
Rp3103
ag1
(I1361554200000000000
NNtp3104
Rp3105
ag1
(I1361554260000000000
NNtp3106
Rp3107
ag1
(I1361554260000000000
NNtp3108
Rp3109
ag1
(I1361554320000000000
NNtp3110
Rp3111
ag1
(I1361554320000000000
NNtp3112
Rp3113
ag1
(I1361555460000000000
NNtp3114
Rp3115
ag1
(I1361555640000000000
NNtp3116
Rp3117
ag1
(I1361555700000000000
NNtp3118
Rp3119
ag1
(I1361555700000000000
NNtp3120
Rp3121
ag1
(I1361555760000000000
NNtp3122
Rp3123
ag1
(I1361555760000000000
NNtp3124
Rp3125
ag1
(I1361555820000000000
NNtp3126
Rp3127
ag1
(I1361555820000000000
NNtp3128
Rp3129
ag1
(I1361555820000000000
NNtp3130
Rp3131
ag1
(I1361555880000000000
NNtp3132
Rp3133
ag1
(I1361555880000000000
NNtp3134
Rp3135
ag1
(I1361555940000000000
NNtp3136
Rp3137
ag1
(I1361555940000000000
NNtp3138
Rp3139
ag1
(I1361556000000000000
NNtp3140
Rp3141
ag1
(I1361556000000000000
NNtp3142
Rp3143
ag1
(I1361556060000000000
NNtp3144
Rp3145
ag1
(I1361556060000000000
NNtp3146
Rp3147
ag1
(I1361556120000000000
NNtp3148
Rp3149
ag1
(I1361556120000000000
NNtp3150
Rp3151
ag1
(I1361556180000000000
NNtp3152
Rp3153
ag1
(I1361556180000000000
NNtp3154
Rp3155
ag1
(I1361556240000000000
NNtp3156
Rp3157
ag1
(I1361556240000000000
NNtp3158
Rp3159
ag1
(I1361556300000000000
NNtp3160
Rp3161
ag1
(I1361556300000000000
NNtp3162
Rp3163
ag1
(I1361556420000000000
NNtp3164
Rp3165
ag1
(I1361556480000000000
NNtp3166
Rp3167
ag1
(I1361556540000000000
NNtp3168
Rp3169
ag1
(I1361556540000000000
NNtp3170
Rp3171
ag1
(I1361556600000000000
NNtp3172
Rp3173
ag1
(I1361556600000000000
NNtp3174
Rp3175
ag1
(I1361556660000000000
NNtp3176
Rp3177
ag1
(I1361556660000000000
NNtp3178
Rp3179
ag1
(I1361556720000000000
NNtp3180
Rp3181
ag1
(I1361556720000000000
NNtp3182
Rp3183
ag1
(I1361556780000000000
NNtp3184
Rp3185
ag1
(I1361556780000000000
NNtp3186
Rp3187
ag1
(I1361556840000000000
NNtp3188
Rp3189
ag1
(I1361556840000000000
NNtp3190
Rp3191
ag1
(I1361556840000000000
NNtp3192
Rp3193
ag1
(I1361556900000000000
NNtp3194
Rp3195
ag1
(I1361556900000000000
NNtp3196
Rp3197
ag1
(I1361556900000000000
NNtp3198
Rp3199
ag1
(I1361556960000000000
NNtp3200
Rp3201
ag1
(I1361556960000000000
NNtp3202
Rp3203
ag1
(I1361556960000000000
NNtp3204
Rp3205
ag1
(I1361557020000000000
NNtp3206
Rp3207
ag1
(I1361557020000000000
NNtp3208
Rp3209
ag1
(I1361557020000000000
NNtp3210
Rp3211
ag1
(I1361557080000000000
NNtp3212
Rp3213
ag1
(I1361557080000000000
NNtp3214
Rp3215
ag1
(I1361557080000000000
NNtp3216
Rp3217
ag1
(I1361557140000000000
NNtp3218
Rp3219
ag1
(I1361557140000000000
NNtp3220
Rp3221
ag1
(I1361557140000000000
NNtp3222
Rp3223
ag1
(I1361557200000000000
NNtp3224
Rp3225
ag1
(I1361557260000000000
NNtp3226
Rp3227
ag1
(I1361557260000000000
NNtp3228
Rp3229
ag1
(I1361557320000000000
NNtp3230
Rp3231
ag1
(I1361557320000000000
NNtp3232
Rp3233
ag1
(I1361557320000000000
NNtp3234
Rp3235
ag1
(I1361557380000000000
NNtp3236
Rp3237
ag1
(I1361557380000000000
NNtp3238
Rp3239
ag1
(I1361557380000000000
NNtp3240
Rp3241
ag1
(I1361557440000000000
NNtp3242
Rp3243
ag1
(I1361557500000000000
NNtp3244
Rp3245
ag1
(I1361557560000000000
NNtp3246
Rp3247
ag1
(I1361557620000000000
NNtp3248
Rp3249
ag1
(I1361557680000000000
NNtp3250
Rp3251
ag1
(I1361557740000000000
NNtp3252
Rp3253
ag1
(I1361557800000000000
NNtp3254
Rp3255
ag1
(I1361557860000000000
NNtp3256
Rp3257
ag1
(I1361557920000000000
NNtp3258
Rp3259
ag1
(I1361557920000000000
NNtp3260
Rp3261
ag1
(I1361557920000000000
NNtp3262
Rp3263
ag1
(I1361557980000000000
NNtp3264
Rp3265
ag1
(I1361557980000000000
NNtp3266
Rp3267
ag1
(I1361557980000000000
NNtp3268
Rp3269
ag1
(I1361558040000000000
NNtp3270
Rp3271
ag1
(I1361558040000000000
NNtp3272
Rp3273
ag1
(I1361558040000000000
NNtp3274
Rp3275
ag1
(I1361558100000000000
NNtp3276
Rp3277
ag1
(I1361558100000000000
NNtp3278
Rp3279
ag1
(I1361558100000000000
NNtp3280
Rp3281
ag1
(I1361558160000000000
NNtp3282
Rp3283
ag1
(I1361558160000000000
NNtp3284
Rp3285
ag1
(I1361558160000000000
NNtp3286
Rp3287
ag1
(I1361558220000000000
NNtp3288
Rp3289
ag1
(I1361558220000000000
NNtp3290
Rp3291
ag1
(I1361558220000000000
NNtp3292
Rp3293
ag1
(I1361558280000000000
NNtp3294
Rp3295
ag1
(I1361558280000000000
NNtp3296
Rp3297
ag1
(I1361558280000000000
NNtp3298
Rp3299
ag1
(I1361558340000000000
NNtp3300
Rp3301
ag1
(I1361558340000000000
NNtp3302
Rp3303
ag1
(I1361558340000000000
NNtp3304
Rp3305
ag1
(I1361558400000000000
NNtp3306
Rp3307
ag1
(I1361558400000000000
NNtp3308
Rp3309
ag1
(I1361558400000000000
NNtp3310
Rp3311
ag1
(I1361558460000000000
NNtp3312
Rp3313
ag1
(I1361558460000000000
NNtp3314
Rp3315
ag1
(I1361558460000000000
NNtp3316
Rp3317
ag1
(I1361558520000000000
NNtp3318
Rp3319
ag1
(I1361558520000000000
NNtp3320
Rp3321
ag1
(I1361558520000000000
NNtp3322
Rp3323
ag1
(I1361558580000000000
NNtp3324
Rp3325
ag1
(I1361558580000000000
NNtp3326
Rp3327
ag1
(I1361558580000000000
NNtp3328
Rp3329
ag1
(I1361558640000000000
NNtp3330
Rp3331
ag1
(I1361558640000000000
NNtp3332
Rp3333
ag1
(I1361558640000000000
NNtp3334
Rp3335
ag1
(I1361558700000000000
NNtp3336
Rp3337
ag1
(I1361558760000000000
NNtp3338
Rp3339
ag1
(I1361558820000000000
NNtp3340
Rp3341
ag1
(I1361558880000000000
NNtp3342
Rp3343
ag1
(I1361558940000000000
NNtp3344
Rp3345
ag1
(I1361559000000000000
NNtp3346
Rp3347
ag1
(I1361559000000000000
NNtp3348
Rp3349
ag1
(I1361559000000000000
NNtp3350
Rp3351
ag1
(I1361559060000000000
NNtp3352
Rp3353
ag1
(I1361559060000000000
NNtp3354
Rp3355
ag1
(I1361559060000000000
NNtp3356
Rp3357
ag1
(I1361559120000000000
NNtp3358
Rp3359
ag1
(I1361559180000000000
NNtp3360
Rp3361
ag1
(I1361559240000000000
NNtp3362
Rp3363
ag1
(I1361559300000000000
NNtp3364
Rp3365
ag1
(I1361559300000000000
NNtp3366
Rp3367
ag1
(I1361559300000000000
NNtp3368
Rp3369
ag1
(I1361559360000000000
NNtp3370
Rp3371
ag1
(I1361559420000000000
NNtp3372
Rp3373
ag1
(I1361559480000000000
NNtp3374
Rp3375
ag1
(I1361559480000000000
NNtp3376
Rp3377
ag1
(I1361559480000000000
NNtp3378
Rp3379
ag1
(I1361559540000000000
NNtp3380
Rp3381
ag1
(I1361559540000000000
NNtp3382
Rp3383
ag1
(I1361559540000000000
NNtp3384
Rp3385
ag1
(I1361559600000000000
NNtp3386
Rp3387
ag1
(I1361559600000000000
NNtp3388
Rp3389
ag1
(I1361559600000000000
NNtp3390
Rp3391
ag1
(I1361559660000000000
NNtp3392
Rp3393
ag1
(I1361559660000000000
NNtp3394
Rp3395
ag1
(I1361559660000000000
NNtp3396
Rp3397
ag1
(I1361559720000000000
NNtp3398
Rp3399
ag1
(I1361559720000000000
NNtp3400
Rp3401
ag1
(I1361559720000000000
NNtp3402
Rp3403
ag1
(I1361559780000000000
NNtp3404
Rp3405
ag1
(I1361559840000000000
NNtp3406
Rp3407
ag1
(I1361559900000000000
NNtp3408
Rp3409
ag1
(I1361559960000000000
NNtp3410
Rp3411
ag1
(I1361560020000000000
NNtp3412
Rp3413
ag1
(I1361560020000000000
NNtp3414
Rp3415
ag1
(I1361560020000000000
NNtp3416
Rp3417
ag1
(I1361560080000000000
NNtp3418
Rp3419
ag1
(I1361560080000000000
NNtp3420
Rp3421
ag1
(I1361560080000000000
NNtp3422
Rp3423
ag1
(I1361560140000000000
NNtp3424
Rp3425
ag1
(I1361560200000000000
NNtp3426
Rp3427
ag1
(I1361560260000000000
NNtp3428
Rp3429
ag1
(I1361560320000000000
NNtp3430
Rp3431
ag1
(I1361560380000000000
NNtp3432
Rp3433
ag1
(I1361560440000000000
NNtp3434
Rp3435
ag1
(I1361560500000000000
NNtp3436
Rp3437
ag1
(I1361560560000000000
NNtp3438
Rp3439
ag1
(I1361560620000000000
NNtp3440
Rp3441
ag1
(I1361560680000000000
NNtp3442
Rp3443
ag1
(I1361560740000000000
NNtp3444
Rp3445
ag1
(I1361560800000000000
NNtp3446
Rp3447
ag1
(I1361560800000000000
NNtp3448
Rp3449
ag1
(I1361560860000000000
NNtp3450
Rp3451
ag1
(I1361560920000000000
NNtp3452
Rp3453
ag1
(I1361560980000000000
NNtp3454
Rp3455
ag1
(I1361587380000000000
NNtp3456
Rp3457
ag1
(I1361587740000000000
NNtp3458
Rp3459
ag1
(I1361587740000000000
NNtp3460
Rp3461
ag1
(I1361587980000000000
NNtp3462
Rp3463
ag1
(I1361588700000000000
NNtp3464
Rp3465
ag1
(I1361619900000000000
NNtp3466
Rp3467
ag1
(I1361619960000000000
NNtp3468
Rp3469
ag1
(I1361619960000000000
NNtp3470
Rp3471
ag1
(I1361620080000000000
NNtp3472
Rp3473
ag1
(I1361620080000000000
NNtp3474
Rp3475
ag1
(I1361620080000000000
NNtp3476
Rp3477
ag1
(I1361620140000000000
NNtp3478
Rp3479
ag1
(I1361620200000000000
NNtp3480
Rp3481
ag1
(I1361622420000000000
NNtp3482
Rp3483
ag1
(I1361622480000000000
NNtp3484
Rp3485
ag1
(I1361622540000000000
NNtp3486
Rp3487
ag1
(I1361886060000000000
NNtp3488
Rp3489
ag1
(I1361886240000000000
NNtp3490
Rp3491
ag1
(I1361886300000000000
NNtp3492
Rp3493
ag1
(I1361886300000000000
NNtp3494
Rp3495
ag1
(I1361886360000000000
NNtp3496
Rp3497
ag1
(I1361886420000000000
NNtp3498
Rp3499
ag1
(I1362137340000000000
NNtp3500
Rp3501
ag1
(I1362137340000000000
NNtp3502
Rp3503
ag1
(I1362137400000000000
NNtp3504
Rp3505
ag1
(I1362137400000000000
NNtp3506
Rp3507
ag1
(I1362137460000000000
NNtp3508
Rp3509
ag1
(I1362137460000000000
NNtp3510
Rp3511
ag1
(I1362137520000000000
NNtp3512
Rp3513
ag1
(I1362137580000000000
NNtp3514
Rp3515
ag1
(I1362137640000000000
NNtp3516
Rp3517
ag1
(I1362137640000000000
NNtp3518
Rp3519
ag1
(I1362138060000000000
NNtp3520
Rp3521
ag1
(I1362138360000000000
NNtp3522
Rp3523
ag1
(I1362138360000000000
NNtp3524
Rp3525
ag1
(I1362138420000000000
NNtp3526
Rp3527
ag1
(I1362138480000000000
NNtp3528
Rp3529
ag1
(I1362138540000000000
NNtp3530
Rp3531
ag1
(I1362138540000000000
NNtp3532
Rp3533
ag1
(I1362138600000000000
NNtp3534
Rp3535
ag1
(I1362138600000000000
NNtp3536
Rp3537
ag1
(I1362138660000000000
NNtp3538
Rp3539
ag1
(I1362138660000000000
NNtp3540
Rp3541
ag1
(I1362138720000000000
NNtp3542
Rp3543
ag1
(I1362138720000000000
NNtp3544
Rp3545
ag1
(I1362148920000000000
NNtp3546
Rp3547
ag1
(I1362148980000000000
NNtp3548
Rp3549
ag1
(I1362179160000000000
NNtp3550
Rp3551
ag1
(I1362179160000000000
NNtp3552
Rp3553
ag1
(I1362179280000000000
NNtp3554
Rp3555
ag1
(I1362179340000000000
NNtp3556
Rp3557
ag1
(I1362179340000000000
NNtp3558
Rp3559
ag1
(I1362179400000000000
NNtp3560
Rp3561
ag1
(I1362179400000000000
NNtp3562
Rp3563
ag1
(I1362179580000000000
NNtp3564
Rp3565
ag1
(I1362179640000000000
NNtp3566
Rp3567
ag1
(I1362179640000000000
NNtp3568
Rp3569
ag1
(I1362180900000000000
NNtp3570
Rp3571
ag1
(I1363405020000000000
NNtp3572
Rp3573
ag1
(I1363405020000000000
NNtp3574
Rp3575
ag1
(I1363405320000000000
NNtp3576
Rp3577
ag1
(I1363405380000000000
NNtp3578
Rp3579
ag1
(I1363405440000000000
NNtp3580
Rp3581
ag1
(I1363405500000000000
NNtp3582
Rp3583
ag1
(I1363405560000000000
NNtp3584
Rp3585
ag1
(I1363405560000000000
NNtp3586
Rp3587
ag1
(I1363405620000000000
NNtp3588
Rp3589
ag1
(I1363405620000000000
NNtp3590
Rp3591
ag1
(I1363405620000000000
NNtp3592
Rp3593
ag1
(I1363405680000000000
NNtp3594
Rp3595
ag1
(I1363405680000000000
NNtp3596
Rp3597
ag1
(I1363405800000000000
NNtp3598
Rp3599
ag1
(I1363405800000000000
NNtp3600
Rp3601
ag1
(I1363405920000000000
NNtp3602
Rp3603
ag1
(I1363405980000000000
NNtp3604
Rp3605
ag1
(I1363406220000000000
NNtp3606
Rp3607
ag1
(I1363406280000000000
NNtp3608
Rp3609
ag1
(I1363406340000000000
NNtp3610
Rp3611
ag1
(I1363406400000000000
NNtp3612
Rp3613
ag1
(I1363406460000000000
NNtp3614
Rp3615
ag1
(I1363406460000000000
NNtp3616
Rp3617
ag1
(I1363406460000000000
NNtp3618
Rp3619
ag1
(I1363406520000000000
NNtp3620
Rp3621
ag1
(I1363406520000000000
NNtp3622
Rp3623
ag1
(I1363406520000000000
NNtp3624
Rp3625
ag1
(I1363406580000000000
NNtp3626
Rp3627
ag1
(I1363406580000000000
NNtp3628
Rp3629
ag1
(I1363406580000000000
NNtp3630
Rp3631
ag1
(I1363406640000000000
NNtp3632
Rp3633
ag1
(I1363406640000000000
NNtp3634
Rp3635
ag1
(I1363406640000000000
NNtp3636
Rp3637
ag1
(I1363406700000000000
NNtp3638
Rp3639
ag1
(I1363406700000000000
NNtp3640
Rp3641
ag1
(I1363406700000000000
NNtp3642
Rp3643
ag1
(I1363406760000000000
NNtp3644
Rp3645
ag1
(I1363406760000000000
NNtp3646
Rp3647
ag1
(I1363406760000000000
NNtp3648
Rp3649
ag1
(I1363406820000000000
NNtp3650
Rp3651
ag1
(I1363406820000000000
NNtp3652
Rp3653
ag1
(I1363406820000000000
NNtp3654
Rp3655
ag1
(I1363406880000000000
NNtp3656
Rp3657
ag1
(I1363406880000000000
NNtp3658
Rp3659
ag1
(I1363406880000000000
NNtp3660
Rp3661
ag1
(I1363406940000000000
NNtp3662
Rp3663
ag1
(I1363406940000000000
NNtp3664
Rp3665
ag1
(I1363406940000000000
NNtp3666
Rp3667
ag1
(I1363407000000000000
NNtp3668
Rp3669
ag1
(I1363407060000000000
NNtp3670
Rp3671
ag1
(I1363407060000000000
NNtp3672
Rp3673
ag1
(I1363407240000000000
NNtp3674
Rp3675
ag1
(I1363407240000000000
NNtp3676
Rp3677
ag1
(I1363407300000000000
NNtp3678
Rp3679
ag1
(I1363407300000000000
NNtp3680
Rp3681
ag1
(I1363407360000000000
NNtp3682
Rp3683
ag1
(I1363407360000000000
NNtp3684
Rp3685
ag1
(I1363407420000000000
NNtp3686
Rp3687
ag1
(I1363407420000000000
NNtp3688
Rp3689
ag1
(I1363407480000000000
NNtp3690
Rp3691
ag1
(I1363407480000000000
NNtp3692
Rp3693
ag1
(I1363407480000000000
NNtp3694
Rp3695
ag1
(I1363407540000000000
NNtp3696
Rp3697
ag1
(I1363407540000000000
NNtp3698
Rp3699
ag1
(I1363407600000000000
NNtp3700
Rp3701
ag1
(I1363407600000000000
NNtp3702
Rp3703
ag1
(I1363407660000000000
NNtp3704
Rp3705
ag1
(I1363407660000000000
NNtp3706
Rp3707
ag1
(I1363407720000000000
NNtp3708
Rp3709
ag1
(I1363407720000000000
NNtp3710
Rp3711
ag1
(I1363407780000000000
NNtp3712
Rp3713
ag1
(I1363407780000000000
NNtp3714
Rp3715
ag1
(I1363407840000000000
NNtp3716
Rp3717
ag1
(I1363407840000000000
NNtp3718
Rp3719
ag1
(I1363407900000000000
NNtp3720
Rp3721
ag1
(I1363407960000000000
NNtp3722
Rp3723
ag1
(I1363407960000000000
NNtp3724
Rp3725
ag1
(I1363408020000000000
NNtp3726
Rp3727
ag1
(I1363408020000000000
NNtp3728
Rp3729
ag1
(I1363408080000000000
NNtp3730
Rp3731
ag1
(I1363408140000000000
NNtp3732
Rp3733
ag1
(I1363408380000000000
NNtp3734
Rp3735
ag1
(I1363408380000000000
NNtp3736
Rp3737
ag1
(I1363408440000000000
NNtp3738
Rp3739
ag1
(I1363408440000000000
NNtp3740
Rp3741
ag1
(I1363408500000000000
NNtp3742
Rp3743
ag1
(I1363408500000000000
NNtp3744
Rp3745
ag1
(I1363408560000000000
NNtp3746
Rp3747
ag1
(I1363408620000000000
NNtp3748
Rp3749
ag1
(I1363408680000000000
NNtp3750
Rp3751
ag1
(I1363408680000000000
NNtp3752
Rp3753
ag1
(I1363408740000000000
NNtp3754
Rp3755
ag1
(I1363408740000000000
NNtp3756
Rp3757
ag1
(I1363408800000000000
NNtp3758
Rp3759
ag1
(I1363408800000000000
NNtp3760
Rp3761
ag1
(I1363408860000000000
NNtp3762
Rp3763
ag1
(I1363408920000000000
NNtp3764
Rp3765
ag1
(I1363408920000000000
NNtp3766
Rp3767
ag1
(I1363409100000000000
NNtp3768
Rp3769
ag1
(I1363409100000000000
NNtp3770
Rp3771
ag1
(I1363409160000000000
NNtp3772
Rp3773
ag1
(I1363409160000000000
NNtp3774
Rp3775
ag1
(I1363434780000000000
NNtp3776
Rp3777
ag1
(I1363435140000000000
NNtp3778
Rp3779
ag1
(I1363435260000000000
NNtp3780
Rp3781
ag1
(I1363435800000000000
NNtp3782
Rp3783
ag1
(I1363435860000000000
NNtp3784
Rp3785
ag1
(I1363435920000000000
NNtp3786
Rp3787
ag1
(I1363435980000000000
NNtp3788
Rp3789
ag1
(I1363436040000000000
NNtp3790
Rp3791
ag1
(I1363436100000000000
NNtp3792
Rp3793
ag1
(I1363436100000000000
NNtp3794
Rp3795
ag1
(I1363436100000000000
NNtp3796
Rp3797
ag1
(I1363436160000000000
NNtp3798
Rp3799
ag1
(I1363436160000000000
NNtp3800
Rp3801
ag1
(I1363436160000000000
NNtp3802
Rp3803
ag1
(I1363436220000000000
NNtp3804
Rp3805
ag1
(I1363436220000000000
NNtp3806
Rp3807
ag1
(I1363436220000000000
NNtp3808
Rp3809
ag1
(I1363436280000000000
NNtp3810
Rp3811
ag1
(I1363436280000000000
NNtp3812
Rp3813
ag1
(I1363436280000000000
NNtp3814
Rp3815
ag1
(I1363436340000000000
NNtp3816
Rp3817
ag1
(I1363436340000000000
NNtp3818
Rp3819
ag1
(I1363436340000000000
NNtp3820
Rp3821
ag1
(I1363436400000000000
NNtp3822
Rp3823
ag1
(I1363436400000000000
NNtp3824
Rp3825
ag1
(I1363436400000000000
NNtp3826
Rp3827
ag1
(I1363436460000000000
NNtp3828
Rp3829
ag1
(I1363436460000000000
NNtp3830
Rp3831
ag1
(I1363436460000000000
NNtp3832
Rp3833
ag1
(I1363436520000000000
NNtp3834
Rp3835
ag1
(I1363436520000000000
NNtp3836
Rp3837
ag1
(I1363436520000000000
NNtp3838
Rp3839
ag1
(I1363436580000000000
NNtp3840
Rp3841
ag1
(I1363436580000000000
NNtp3842
Rp3843
ag1
(I1363436580000000000
NNtp3844
Rp3845
ag1
(I1363436640000000000
NNtp3846
Rp3847
ag1
(I1363436640000000000
NNtp3848
Rp3849
ag1
(I1363436640000000000
NNtp3850
Rp3851
ag1
(I1363436700000000000
NNtp3852
Rp3853
ag1
(I1363436760000000000
NNtp3854
Rp3855
ag1
(I1363436820000000000
NNtp3856
Rp3857
ag1
(I1363436880000000000
NNtp3858
Rp3859
ag1
(I1363436880000000000
NNtp3860
Rp3861
ag1
(I1363436880000000000
NNtp3862
Rp3863
ag1
(I1363436940000000000
NNtp3864
Rp3865
ag1
(I1363436940000000000
NNtp3866
Rp3867
ag1
(I1363436940000000000
NNtp3868
Rp3869
ag1
(I1363437000000000000
NNtp3870
Rp3871
ag1
(I1363437060000000000
NNtp3872
Rp3873
ag1
(I1363437120000000000
NNtp3874
Rp3875
ag1
(I1363437180000000000
NNtp3876
Rp3877
ag1
(I1363437240000000000
NNtp3878
Rp3879
ag1
(I1363524300000000000
NNtp3880
Rp3881
ag1
(I1363524300000000000
NNtp3882
Rp3883
ag1
(I1363533720000000000
NNtp3884
Rp3885
ag1
(I1363533720000000000
NNtp3886
Rp3887
ag1
(I1363536600000000000
NNtp3888
Rp3889
ag1
(I1363536660000000000
NNtp3890
Rp3891
ag1
(I1363536780000000000
NNtp3892
Rp3893
ag1
(I1363536780000000000
NNtp3894
Rp3895
ag1
(I1363536840000000000
NNtp3896
Rp3897
ag1
(I1363536840000000000
NNtp3898
Rp3899
ag1
(I1363536840000000000
NNtp3900
Rp3901
ag1
(I1363536900000000000
NNtp3902
Rp3903
ag1
(I1363536900000000000
NNtp3904
Rp3905
ag1
(I1363536960000000000
NNtp3906
Rp3907
ag1
(I1363536960000000000
NNtp3908
Rp3909
ag1
(I1363537020000000000
NNtp3910
Rp3911
ag1
(I1363537080000000000
NNtp3912
Rp3913
ag1
(I1363537080000000000
NNtp3914
Rp3915
ag1
(I1363537140000000000
NNtp3916
Rp3917
ag1
(I1363537200000000000
NNtp3918
Rp3919
ag1
(I1363537200000000000
NNtp3920
Rp3921
ag1
(I1363537200000000000
NNtp3922
Rp3923
ag1
(I1363537260000000000
NNtp3924
Rp3925
ag1
(I1363537260000000000
NNtp3926
Rp3927
ag1
(I1363537260000000000
NNtp3928
Rp3929
ag1
(I1363537320000000000
NNtp3930
Rp3931
ag1
(I1363537320000000000
NNtp3932
Rp3933
ag1
(I1363537320000000000
NNtp3934
Rp3935
ag1
(I1363537380000000000
NNtp3936
Rp3937
ag1
(I1363537380000000000
NNtp3938
Rp3939
ag1
(I1363537380000000000
NNtp3940
Rp3941
ag1
(I1363537440000000000
NNtp3942
Rp3943
ag1
(I1363537500000000000
NNtp3944
Rp3945
ag1
(I1363537500000000000
NNtp3946
Rp3947
ag1
(I1363537560000000000
NNtp3948
Rp3949
ag1
(I1363537620000000000
NNtp3950
Rp3951
ag1
(I1363537680000000000
NNtp3952
Rp3953
ag1
(I1363537740000000000
NNtp3954
Rp3955
ag1
(I1363537800000000000
NNtp3956
Rp3957
ag1
(I1363537860000000000
NNtp3958
Rp3959
ag1
(I1363537860000000000
NNtp3960
Rp3961
ag1
(I1363537860000000000
NNtp3962
Rp3963
ag1
(I1363537920000000000
NNtp3964
Rp3965
ag1
(I1363537920000000000
NNtp3966
Rp3967
ag1
(I1363537920000000000
NNtp3968
Rp3969
ag1
(I1363537980000000000
NNtp3970
Rp3971
ag1
(I1363538040000000000
NNtp3972
Rp3973
ag1
(I1363538100000000000
NNtp3974
Rp3975
ag1
(I1363538160000000000
NNtp3976
Rp3977
ag1
(I1363538160000000000
NNtp3978
Rp3979
ag1
(I1363538160000000000
NNtp3980
Rp3981
ag1
(I1363538220000000000
NNtp3982
Rp3983
ag1
(I1363538280000000000
NNtp3984
Rp3985
ag1
(I1363538340000000000
NNtp3986
Rp3987
ag1
(I1363538580000000000
NNtp3988
Rp3989
ag1
(I1363538640000000000
NNtp3990
Rp3991
ag1
(I1363538640000000000
NNtp3992
Rp3993
ag1
(I1363538640000000000
NNtp3994
Rp3995
ag1
(I1363538820000000000
NNtp3996
Rp3997
ag1
(I1363538880000000000
NNtp3998
Rp3999
ag1
(I1363759260000000000
NNtp4000
Rp4001
ag1
(I1363759500000000000
NNtp4002
Rp4003
ag1
(I1363759560000000000
NNtp4004
Rp4005
ag1
(I1363759680000000000
NNtp4006
Rp4007
ag1
(I1363759800000000000
NNtp4008
Rp4009
ag1
(I1363759980000000000
NNtp4010
Rp4011
ag1
(I1363760040000000000
NNtp4012
Rp4013
ag1
(I1363760040000000000
NNtp4014
Rp4015
ag1
(I1363760100000000000
NNtp4016
Rp4017
ag1
(I1363760160000000000
NNtp4018
Rp4019
ag1
(I1363760160000000000
NNtp4020
Rp4021
ag1
(I1363760220000000000
NNtp4022
Rp4023
ag1
(I1363760460000000000
NNtp4024
Rp4025
ag1
(I1363760580000000000
NNtp4026
Rp4027
ag1
(I1363760700000000000
NNtp4028
Rp4029
ag1
(I1363760760000000000
NNtp4030
Rp4031
ag1
(I1363760820000000000
NNtp4032
Rp4033
ag1
(I1363760880000000000
NNtp4034
Rp4035
ag1
(I1363760940000000000
NNtp4036
Rp4037
ag1
(I1363760940000000000
NNtp4038
Rp4039
ag1
(I1363760940000000000
NNtp4040
Rp4041
ag1
(I1363761000000000000
NNtp4042
Rp4043
ag1
(I1363761060000000000
NNtp4044
Rp4045
ag1
(I1363761120000000000
NNtp4046
Rp4047
ag1
(I1364374800000000000
NNtp4048
Rp4049
ag1
(I1364375100000000000
NNtp4050
Rp4051
ag1
(I1364375160000000000
NNtp4052
Rp4053
ag1
(I1364375220000000000
NNtp4054
Rp4055
ag1
(I1364377500000000000
NNtp4056
Rp4057
ag1
(I1364377500000000000
NNtp4058
Rp4059
ag1
(I1364377620000000000
NNtp4060
Rp4061
ag1
(I1364535660000000000
NNtp4062
Rp4063
ag1
(I1364535660000000000
NNtp4064
Rp4065
ag1
(I1364535900000000000
NNtp4066
Rp4067
ag1
(I1364535900000000000
NNtp4068
Rp4069
ag1
(I1364537340000000000
NNtp4070
Rp4071
ag1
(I1364537400000000000
NNtp4072
Rp4073
ag1
(I1364537460000000000
NNtp4074
Rp4075
ag1
(I1364537460000000000
NNtp4076
Rp4077
ag1
(I1364537520000000000
NNtp4078
Rp4079
ag1
(I1364537520000000000
NNtp4080
Rp4081
ag1
(I1364537580000000000
NNtp4082
Rp4083
ag1
(I1364537580000000000
NNtp4084
Rp4085
ag1
(I1364538000000000000
NNtp4086
Rp4087
ag1
(I1364538000000000000
NNtp4088
Rp4089
ag1
(I1364538420000000000
NNtp4090
Rp4091
ag1
(I1364538540000000000
NNtp4092
Rp4093
ag1
(I1364538600000000000
NNtp4094
Rp4095
ag1
(I1364538660000000000
NNtp4096
Rp4097
ag1
(I1364538720000000000
NNtp4098
Rp4099
ag1
(I1364538780000000000
NNtp4100
Rp4101
ag1
(I1364538900000000000
NNtp4102
Rp4103
ag1
(I1364539020000000000
NNtp4104
Rp4105
ag1
(I1364539080000000000
NNtp4106
Rp4107
ag1
(I1364539140000000000
NNtp4108
Rp4109
ag1
(I1364539200000000000
NNtp4110
Rp4111
ag1
(I1364539260000000000
NNtp4112
Rp4113
ag1
(I1364539320000000000
NNtp4114
Rp4115
ag1
(I1364539440000000000
NNtp4116
Rp4117
ag1
(I1364539500000000000
NNtp4118
Rp4119
ag1
(I1364539560000000000
NNtp4120
Rp4121
ag1
(I1364539620000000000
NNtp4122
Rp4123
ag1
(I1364539680000000000
NNtp4124
Rp4125
ag1
(I1364539740000000000
NNtp4126
Rp4127
ag1
(I1364539800000000000
NNtp4128
Rp4129
ag1
(I1364539860000000000
NNtp4130
Rp4131
ag1
(I1364539920000000000
NNtp4132
Rp4133
ag1
(I1364539980000000000
NNtp4134
Rp4135
ag1
(I1364540040000000000
NNtp4136
Rp4137
ag1
(I1364540100000000000
NNtp4138
Rp4139
ag1
(I1364540160000000000
NNtp4140
Rp4141
ag1
(I1364540280000000000
NNtp4142
Rp4143
ag1
(I1364540340000000000
NNtp4144
Rp4145
ag1
(I1364540400000000000
NNtp4146
Rp4147
ag1
(I1364540460000000000
NNtp4148
Rp4149
ag1
(I1364540460000000000
NNtp4150
Rp4151
ag1
(I1364540520000000000
NNtp4152
Rp4153
ag1
(I1364540580000000000
NNtp4154
Rp4155
ag1
(I1364540580000000000
NNtp4156
Rp4157
ag1
(I1364540580000000000
NNtp4158
Rp4159
ag1
(I1364540640000000000
NNtp4160
Rp4161
ag1
(I1364540640000000000
NNtp4162
Rp4163
ag1
(I1364540640000000000
NNtp4164
Rp4165
ag1
(I1364540700000000000
NNtp4166
Rp4167
ag1
(I1364540760000000000
NNtp4168
Rp4169
ag1
(I1364540820000000000
NNtp4170
Rp4171
ag1
(I1364540880000000000
NNtp4172
Rp4173
ag1
(I1364540880000000000
NNtp4174
Rp4175
ag1
(I1364540880000000000
NNtp4176
Rp4177
ag1
(I1364540940000000000
NNtp4178
Rp4179
ag1
(I1364540940000000000
NNtp4180
Rp4181
ag1
(I1364540940000000000
NNtp4182
Rp4183
ag1
(I1364541000000000000
NNtp4184
Rp4185
ag1
(I1364541060000000000
NNtp4186
Rp4187
ag1
(I1364541060000000000
NNtp4188
Rp4189
ag1
(I1364541060000000000
NNtp4190
Rp4191
ag1
(I1364541120000000000
NNtp4192
Rp4193
ag1
(I1364541120000000000
NNtp4194
Rp4195
ag1
(I1364541120000000000
NNtp4196
Rp4197
ag1
(I1364541180000000000
NNtp4198
Rp4199
ag1
(I1364541180000000000
NNtp4200
Rp4201
ag1
(I1364541180000000000
NNtp4202
Rp4203
ag1
(I1364541240000000000
NNtp4204
Rp4205
ag1
(I1364541240000000000
NNtp4206
Rp4207
ag1
(I1364541240000000000
NNtp4208
Rp4209
ag1
(I1364541300000000000
NNtp4210
Rp4211
ag1
(I1364541360000000000
NNtp4212
Rp4213
ag1
(I1364541420000000000
NNtp4214
Rp4215
ag1
(I1364541480000000000
NNtp4216
Rp4217
ag1
(I1364541540000000000
NNtp4218
Rp4219
ag1
(I1364541720000000000
NNtp4220
Rp4221
ag1
(I1364541780000000000
NNtp4222
Rp4223
ag1
(I1364541840000000000
NNtp4224
Rp4225
ag1
(I1364541900000000000
NNtp4226
Rp4227
ag1
(I1364541900000000000
NNtp4228
Rp4229
ag1
(I1364541900000000000
NNtp4230
Rp4231
ag1
(I1364541960000000000
NNtp4232
Rp4233
ag1
(I1364542020000000000
NNtp4234
Rp4235
ag1
(I1364542020000000000
NNtp4236
Rp4237
ag1
(I1364542020000000000
NNtp4238
Rp4239
ag1
(I1364542080000000000
NNtp4240
Rp4241
ag1
(I1364542080000000000
NNtp4242
Rp4243
ag1
(I1364542080000000000
NNtp4244
Rp4245
ag1
(I1364542140000000000
NNtp4246
Rp4247
ag1
(I1364542200000000000
NNtp4248
Rp4249
ag1
(I1364542260000000000
NNtp4250
Rp4251
ag1
(I1364542320000000000
NNtp4252
Rp4253
ag1
(I1364542380000000000
NNtp4254
Rp4255
ag1
(I1364542440000000000
NNtp4256
Rp4257
ag1
(I1364542440000000000
NNtp4258
Rp4259
ag1
(I1364542440000000000
NNtp4260
Rp4261
ag1
(I1364542500000000000
NNtp4262
Rp4263
ag1
(I1364542560000000000
NNtp4264
Rp4265
ag1
(I1364567220000000000
NNtp4266
Rp4267
ag1
(I1364567220000000000
NNtp4268
Rp4269
ag1
(I1364568720000000000
NNtp4270
Rp4271
ag1
(I1364568720000000000
NNtp4272
Rp4273
ag1
(I1364569560000000000
NNtp4274
Rp4275
ag1
(I1364569560000000000
NNtp4276
Rp4277
ag1
(I1364569620000000000
NNtp4278
Rp4279
ag1
(I1364569620000000000
NNtp4280
Rp4281
ag1
(I1364569620000000000
NNtp4282
Rp4283
ag1
(I1364569680000000000
NNtp4284
Rp4285
ag1
(I1364569860000000000
NNtp4286
Rp4287
ag1
(I1364569860000000000
NNtp4288
Rp4289
ag1
(I1364569920000000000
NNtp4290
Rp4291
ag1
(I1364569920000000000
NNtp4292
Rp4293
ag1
(I1364569980000000000
NNtp4294
Rp4295
ag1
(I1364570100000000000
NNtp4296
Rp4297
ag1
(I1364570160000000000
NNtp4298
Rp4299
ag1
(I1364570160000000000
NNtp4300
Rp4301
ag1
(I1364570160000000000
NNtp4302
Rp4303
ag1
(I1364570460000000000
NNtp4304
Rp4305
ag1
(I1364570460000000000
NNtp4306
Rp4307
ag1
(I1364571120000000000
NNtp4308
Rp4309
ag1
(I1364571180000000000
NNtp4310
Rp4311
ag1
(I1364571600000000000
NNtp4312
Rp4313
ag1
(I1364571660000000000
NNtp4314
Rp4315
ag1
(I1364571780000000000
NNtp4316
Rp4317
ag1
(I1364571780000000000
NNtp4318
Rp4319
ag1
(I1364571840000000000
NNtp4320
Rp4321
ag1
(I1364571900000000000
NNtp4322
Rp4323
ag1
(I1364571900000000000
NNtp4324
Rp4325
ag1
(I1364572860000000000
NNtp4326
Rp4327
ag1
(I1364573040000000000
NNtp4328
Rp4329
ag1
(I1364573100000000000
NNtp4330
Rp4331
ag1
(I1364573100000000000
NNtp4332
Rp4333
ag1
(I1365930900000000000
NNtp4334
Rp4335
ag1
(I1365930900000000000
NNtp4336
Rp4337
ag1
(I1365930960000000000
NNtp4338
Rp4339
ag1
(I1365930960000000000
NNtp4340
Rp4341
ag1
(I1365931320000000000
NNtp4342
Rp4343
ag1
(I1365931380000000000
NNtp4344
Rp4345
ag1
(I1365931500000000000
NNtp4346
Rp4347
ag1
(I1365931560000000000
NNtp4348
Rp4349
ag1
(I1365931620000000000
NNtp4350
Rp4351
ag1
(I1366833600000000000
NNtp4352
Rp4353
ag1
(I1366833660000000000
NNtp4354
Rp4355
ag1
(I1366833720000000000
NNtp4356
Rp4357
ag1
(I1366833780000000000
NNtp4358
Rp4359
ag1
(I1366833840000000000
NNtp4360
Rp4361
ag1
(I1366833900000000000
NNtp4362
Rp4363
ag1
(I1366833960000000000
NNtp4364
Rp4365
ag1
(I1366834020000000000
NNtp4366
Rp4367
ag1
(I1366834020000000000
NNtp4368
Rp4369
ag1
(I1366834020000000000
NNtp4370
Rp4371
ag1
(I1366834080000000000
NNtp4372
Rp4373
ag1
(I1366834080000000000
NNtp4374
Rp4375
ag1
(I1366834080000000000
NNtp4376
Rp4377
ag1
(I1366834140000000000
NNtp4378
Rp4379
ag1
(I1366834140000000000
NNtp4380
Rp4381
ag1
(I1366834140000000000
NNtp4382
Rp4383
ag1
(I1366834200000000000
NNtp4384
Rp4385
ag1
(I1366834260000000000
NNtp4386
Rp4387
ag1
(I1366834320000000000
NNtp4388
Rp4389
ag1
(I1366834620000000000
NNtp4390
Rp4391
ag1
(I1367412900000000000
NNtp4392
Rp4393
ag1
(I1367412900000000000
NNtp4394
Rp4395
ag1
(I1367412960000000000
NNtp4396
Rp4397
ag1
(I1367412960000000000
NNtp4398
Rp4399
ag1
(I1367413020000000000
NNtp4400
Rp4401
ag1
(I1367413020000000000
NNtp4402
Rp4403
ag1
(I1367413080000000000
NNtp4404
Rp4405
ag1
(I1367413080000000000
NNtp4406
Rp4407
ag1
(I1367413140000000000
NNtp4408
Rp4409
ag1
(I1367413140000000000
NNtp4410
Rp4411
ag1
(I1367413200000000000
NNtp4412
Rp4413
ag1
(I1367413200000000000
NNtp4414
Rp4415
ag1
(I1367413260000000000
NNtp4416
Rp4417
ag1
(I1367413320000000000
NNtp4418
Rp4419
ag1
(I1367413320000000000
NNtp4420
Rp4421
ag1
(I1367413380000000000
NNtp4422
Rp4423
ag1
(I1367413380000000000
NNtp4424
Rp4425
ag1
(I1367413440000000000
NNtp4426
Rp4427
ag1
(I1367413440000000000
NNtp4428
Rp4429
ag1
(I1367413440000000000
NNtp4430
Rp4431
ag1
(I1367413500000000000
NNtp4432
Rp4433
ag1
(I1367413680000000000
NNtp4434
Rp4435
ag1
(I1367413740000000000
NNtp4436
Rp4437
ag1
(I1367413800000000000
NNtp4438
Rp4439
ag1
(I1367413860000000000
NNtp4440
Rp4441
ag1
(I1367413920000000000
NNtp4442
Rp4443
ag1
(I1367413980000000000
NNtp4444
Rp4445
ag1
(I1367414040000000000
NNtp4446
Rp4447
ag1
(I1367414100000000000
NNtp4448
Rp4449
ag1
(I1367414160000000000
NNtp4450
Rp4451
ag1
(I1367414160000000000
NNtp4452
Rp4453
ag1
(I1367414160000000000
NNtp4454
Rp4455
ag1
(I1367414220000000000
NNtp4456
Rp4457
ag1
(I1367414220000000000
NNtp4458
Rp4459
ag1
(I1367414220000000000
NNtp4460
Rp4461
ag1
(I1367414280000000000
NNtp4462
Rp4463
ag1
(I1367414280000000000
NNtp4464
Rp4465
ag1
(I1367414280000000000
NNtp4466
Rp4467
ag1
(I1367414340000000000
NNtp4468
Rp4469
ag1
(I1367414400000000000
NNtp4470
Rp4471
ag1
(I1367414460000000000
NNtp4472
Rp4473
ag1
(I1367414460000000000
NNtp4474
Rp4475
ag1
(I1367414460000000000
NNtp4476
Rp4477
ag1
(I1367414520000000000
NNtp4478
Rp4479
ag1
(I1367414580000000000
NNtp4480
Rp4481
ag1
(I1367414640000000000
NNtp4482
Rp4483
ag1
(I1367414640000000000
NNtp4484
Rp4485
ag1
(I1367414640000000000
NNtp4486
Rp4487
ag1
(I1367414700000000000
NNtp4488
Rp4489
ag1
(I1367414700000000000
NNtp4490
Rp4491
ag1
(I1367414760000000000
NNtp4492
Rp4493
ag1
(I1367414760000000000
NNtp4494
Rp4495
ag1
(I1367414820000000000
NNtp4496
Rp4497
ag1
(I1367414820000000000
NNtp4498
Rp4499
ag1
(I1367414820000000000
NNtp4500
Rp4501
ag1
(I1367415060000000000
NNtp4502
Rp4503
ag1
(I1367415120000000000
NNtp4504
Rp4505
ag1
(I1367416020000000000
NNtp4506
Rp4507
ag1
(I1367416020000000000
NNtp4508
Rp4509
a.